gplink-2.2.34 (Jun  1 2022)
Listing File Generated: 2024-4-23  10:47:11
 
 
Address  Value    Disassembly              Source
-------  -----    -----------              ------
                                           ;--------------------------------------------------------
                                           ; external declarations
                                           ;--------------------------------------------------------
                                           	extern	_TIMER2_PWM_Init
                                           	extern	__modsint
                                           	extern	__divsint
                                           	extern	__divuint
                                           	extern	_INDF0bits
                                           	extern	_INDF1bits
                                           	extern	_INDF2bits
                                           	extern	_HIBYTEbits
                                           	extern	_FSR0bits
                                           	extern	_FSR1bits
                                           	extern	_PCLbits
                                           	extern	_PFLAGbits
                                           	extern	_MCRbits
                                           	extern	_INDF3bits
                                           	extern	_INTEbits
                                           	extern	_INTFbits
                                           	extern	_DRVCRbits
                                           	extern	_PFRCCRbits
                                           	extern	_P1KBCRbits
                                           	extern	_PFRCCALbits
                                           	extern	_IOP0bits
                                           	extern	_OEP0bits
                                           	extern	_PUP0bits
                                           	extern	_PDP0bits
                                           	extern	_IOP1bits
                                           	extern	_OEP1bits
                                           	extern	_PUP1bits
                                           	extern	_PDP1bits
                                           	extern	_T0CRbits
                                           	extern	_T0CNTbits
                                           	extern	_T0LOADbits
                                           	extern	_T0DATAbits
                                           	extern	_T1CRbits
                                           	extern	_T1CNTbits
                                           	extern	_T1LOADbits
                                           	extern	_T1DATAbits
                                           	extern	_T2CRbits
                                           	extern	_T2CNTbits
                                           	extern	_T2LOADbits
                                           	extern	_T2DATAbits
                                           	extern	_T3CRbits
                                           	extern	_T3CNTbits
                                           	extern	_T3LOADbits
                                           	extern	_PWM0DRbits
                                           	extern	_PWM1DRbits
                                           	extern	_PWM2DRbits
                                           	extern	_PWMCR0bits
                                           	extern	_PWMCR1bits
                                           	extern	_OSCMRbits
                                           	extern	_LVDCRbits
                                           	extern	_ADCR0bits
                                           	extern	_ADCR1bits
                                           	extern	_ADCR2bits
                                           	extern	_OSADJCRbits
                                           	extern	_ADRHbits
                                           	extern	_ADRLbits
                                           	extern	_ADIOS0bits
                                           	extern	_ADIOS1bits
                                           	extern	_PMODbits
                                           	extern	_PWMCR3bits
                                           	extern	_PWMCR2bits
                                           	extern	_PFRCAUXbits
                                           	extern	_HIRCCALbits
                                           	extern	_INDF0
                                           	extern	_INDF1
                                           	extern	_INDF2
                                           	extern	_HIBYTE
                                           	extern	_FSR0
                                           	extern	_FSR1
                                           	extern	_PCL
                                           	extern	_PFLAG
                                           	extern	_MCR
                                           	extern	_INDF3
                                           	extern	_INTE
                                           	extern	_INTF
                                           	extern	_DRVCR
                                           	extern	_PFRCCR
                                           	extern	_P1KBCR
                                           	extern	_PFRCCAL
                                           	extern	_IOP0
                                           	extern	_OEP0
                                           	extern	_PUP0
                                           	extern	_PDP0
                                           	extern	_IOP1
                                           	extern	_OEP1
                                           	extern	_PUP1
                                           	extern	_PDP1
                                           	extern	_T0CR
                                           	extern	_T0CNT
                                           	extern	_T0LOAD
                                           	extern	_T0DATA
                                           	extern	_T1CR
                                           	extern	_T1CNT
                                           	extern	_T1LOAD
                                           	extern	_T1DATA
                                           	extern	_T2CR
                                           	extern	_T2CNT
                                           	extern	_T2LOAD
                                           	extern	_T2DATA
                                           	extern	_T3CR
                                           	extern	_T3CNT
                                           	extern	_T3LOAD
                                           	extern	_PWM0DR
                                           	extern	_PWM1DR
                                           	extern	_PWM2DR
                                           	extern	_PWMCR0
                                           	extern	_PWMCR1
                                           	extern	_OSCMR
                                           	extern	_LVDCR
                                           	extern	_ADCR0
                                           	extern	_ADCR1
                                           	extern	_ADCR2
                                           	extern	_OSADJCR
                                           	extern	_ADRH
                                           	extern	_ADRL
                                           	extern	_ADIOS0
                                           	extern	_ADIOS1
                                           	extern	_PMOD
                                           	extern	_PWMCR3
                                           	extern	_PWMCR2
                                           	extern	_PFRCAUX
                                           	extern	_HIRCCAL
                                           ;--------------------------------------------------------
                                           ; global declarations
                                           ;--------------------------------------------------------
                                           	global	_SCAN_SLEEP_CTR
                                           	global	_ADC_Zero_ADJ
                                           	global	_ADC_Power_On_Stability
                                           	global	_SCAN_HOT_BAT_AD
                                           	global	_SET_DL_DIS
                                           	global	_GET_SMG_VALUE
                                           	global	_SCAN_SMG_DIS
                                           	global	_SCAN_SMG_CTR
                                           	global	_SCAN_FUNTION_CTR
                                           	global	_SCAN_CHARGE_CTR
                                           	global	_SCAN_KEY_CTR
                                           	global	_Sys_Init
                                           	global	_TIMER1_PWM_Init
                                           	global	_TIMER0_INT_Init
                                           	global	_IO_Init
                                           	global	_CLR_RAM
                                           	global	_main
                                           	global	_int_isr
                                           	global	_flag1
                                           	global	_flag2
                                           	global	_KEY_FLAG
                                           	global	_B_SMG_S
                                           	global	_B_SMG_B
                                           	global	_B_SMG_C
                                           	global	_abuf
                                           	global	_statusbuf
                                           	global	_KEY_CNT1
                                           	global	_KEY_CNT2
                                           	global	_MOTO_MODE
                                           	global	_BUFF_MOTO
                                           	global	_BUFF_SMG_DAT
                                           	global	_SMG_MODE
                                           	global	_B_BUFF_0
                                           	global	_B_BUFF_1
                                           	global	_TIME_500US_CNT
                                           	global	_DL_DIS_CNT
                                           	global	_TIME_1MS_CNT
                                           	global	_R_AD_CNT1
                                           	global	_G_VAL
                                           	global	_CHARGE_CNT1
                                           	global	_CHARGE_CNT2
                                           	global	_CHARGE_CNT3
                                           	global	_SL_CNT
                                           	global	_LED_MODE
                                           	global	_BAT_CNT5
                                           	global	_AD_MODE
                                           	global	_MOTO_CNT1
                                           	global	_MOTO_CNT2
                                           	global	_R_AD_CNT2
                                           	global	_BUFF_M_CNT
                                           	global	_CHARG_DIS_CNT
                                           	global	_MOTO_DIS_CNT
                                           	global	_CHARGE_CNT
                                           	global	_DL_DIS_CNT1
                                           	global	_DL_DIS_CNT2
                                           	global	_BUFF_BAT_VALUE
                                           	global	_SET_BAT_VALUE
                                           	global	_IN_LOAD_CNT1
                                           	global	_IN_LOAD_CNT2
                                           	global	_W_OVER_ALL1
                                           	global	_W_OVER_ALL2
                                           	global	_BUFF_OVER_ALL2
                                           	global	_WAIT_ADC_CHANGE
                                           	global	_WAIT_ADC_CHANGE1
                                           	global	_g_temp_value
                                           	global	_g_temp_value1
                                           	global	_PL_DIS_CNT1
                                           
                                           	global STK06
                                           	global STK05
                                           	global STK04
                                           	global STK03
                                           	global STK02
                                           	global STK01
                                           	global STK00
                                           
                                           sharebank udata_ovr 0x0000
                                           STK06	res 1
                                           STK05	res 1
                                           STK04	res 1
                                           STK03	res 1
                                           STK02	res 1
                                           STK01	res 1
                                           STK00	res 1
                                           
                                           ;--------------------------------------------------------
                                           ; global definitions
                                           ;--------------------------------------------------------
                                           UD_MC32P7351_0	udata
                                           _flag1	res	1
                                           
                                           UD_MC32P7351_1	udata
                                           _flag2	res	1
                                           
                                           UD_MC32P7351_2	udata
                                           _KEY_FLAG	res	1
                                           
                                           UD_MC32P7351_3	udata
                                           _B_SMG_S	res	1
                                           
                                           UD_MC32P7351_4	udata
                                           _B_SMG_B	res	1
                                           
                                           UD_MC32P7351_5	udata
                                           _B_SMG_C	res	1
                                           
                                           UD_MC32P7351_6	udata
                                           _abuf	res	1
                                           
                                           UD_MC32P7351_7	udata
                                           _statusbuf	res	1
                                           
                                           UD_MC32P7351_8	udata
                                           _KEY_CNT1	res	2
                                           
                                           UD_MC32P7351_9	udata
                                           _KEY_CNT2	res	1
                                           
                                           UD_MC32P7351_10	udata
                                           _MOTO_MODE	res	1
                                           
                                           UD_MC32P7351_11	udata
                                           _BUFF_MOTO	res	1
                                           
                                           UD_MC32P7351_12	udata
                                           _BUFF_SMG_DAT	res	1
                                           
                                           UD_MC32P7351_13	udata
                                           _SMG_MODE	res	1
                                           
                                           UD_MC32P7351_14	udata
                                           _B_BUFF_0	res	1
                                           
                                           UD_MC32P7351_15	udata
                                           _B_BUFF_1	res	1
                                           
                                           UD_MC32P7351_16	udata
                                           _TIME_500US_CNT	res	1
                                           
                                           UD_MC32P7351_17	udata
                                           _DL_DIS_CNT	res	1
                                           
                                           UD_MC32P7351_18	udata
                                           _TIME_1MS_CNT	res	1
                                           
                                           UD_MC32P7351_19	udata
                                           _R_AD_CNT1	res	1
                                           
                                           UD_MC32P7351_20	udata
                                           _G_VAL	res	1
                                           
                                           UD_MC32P7351_21	udata
                                           _CHARGE_CNT1	res	1
                                           
                                           UD_MC32P7351_22	udata
                                           _CHARGE_CNT2	res	1
                                           
                                           UD_MC32P7351_23	udata
                                           _CHARGE_CNT3	res	1
                                           
                                           UD_MC32P7351_24	udata
                                           _SL_CNT	res	1
                                           
                                           UD_MC32P7351_25	udata
                                           _LED_MODE	res	1
                                           
                                           UD_MC32P7351_26	udata
                                           _BAT_CNT5	res	1
                                           
                                           UD_MC32P7351_27	udata
                                           _AD_MODE	res	1
                                           
                                           UD_MC32P7351_28	udata
                                           _MOTO_CNT1	res	1
                                           
                                           UD_MC32P7351_29	udata
                                           _MOTO_CNT2	res	1
                                           
                                           UD_MC32P7351_30	udata
                                           _R_AD_CNT2	res	1
                                           
                                           UD_MC32P7351_31	udata
                                           _BUFF_M_CNT	res	1
                                           
                                           UD_MC32P7351_32	udata
                                           _CHARG_DIS_CNT	res	2
                                           
                                           UD_MC32P7351_33	udata
                                           _MOTO_DIS_CNT	res	2
                                           
                                           UD_MC32P7351_34	udata
                                           _CHARGE_CNT	res	2
                                           
                                           UD_MC32P7351_35	udata
                                           _DL_DIS_CNT1	res	2
                                           
                                           UD_MC32P7351_36	udata
                                           _DL_DIS_CNT2	res	2
                                           
                                           UD_MC32P7351_37	udata
                                           _BUFF_BAT_VALUE	res	2
                                           
                                           UD_MC32P7351_38	udata
                                           _SET_BAT_VALUE	res	2
                                           
                                           UD_MC32P7351_39	udata
                                           _IN_LOAD_CNT1	res	2
                                           
                                           UD_MC32P7351_40	udata
                                           _IN_LOAD_CNT2	res	2
                                           
                                           UD_MC32P7351_41	udata
                                           _W_OVER_ALL1	res	2
                                           
                                           UD_MC32P7351_42	udata
                                           _W_OVER_ALL2	res	2
                                           
                                           UD_MC32P7351_43	udata
                                           _BUFF_OVER_ALL2	res	2
                                           
                                           UD_MC32P7351_44	udata
                                           _WAIT_ADC_CHANGE	res	2
                                           
                                           UD_MC32P7351_45	udata
                                           _WAIT_ADC_CHANGE1	res	2
                                           
                                           UD_MC32P7351_46	udata
                                           _g_temp_value	res	2
                                           
                                           UD_MC32P7351_47	udata
                                           _g_temp_value1	res	2
                                           
                                           UD_MC32P7351_48	udata
                                           _PL_DIS_CNT1	res	2
                                           
                                           ;--------------------------------------------------------
                                           ; absolute symbol definitions
                                           ;--------------------------------------------------------
                                           ;--------------------------------------------------------
                                           ; compiler-defined variables
                                           ;--------------------------------------------------------
                                           UDL_MC32P7351_0	udata
                                           r0x104F	res	1
                                           r0x104E	res	1
                                           r0x104D	res	1
                                           r0x1048	res	1
                                           r0x1049	res	1
                                           r0x104A	res	1
                                           r0x104B	res	1
                                           r0x1043	res	1
                                           r0x1042	res	1
                                           r0x1044	res	1
                                           r0x1045	res	1
                                           r0x1046	res	1
                                           r0x1047	res	1
                                           r0x1040	res	1
                                           r0x1041	res	1
                                           r0x103E	res	1
                                           r0x103F	res	1
                                           r0x1050	res	1
                                           r0x1051	res	1
                                           ;--------------------------------------------------------
                                           ; initialized data
                                           ;--------------------------------------------------------
                                           
                                           ;@Allocation info for local variables in function 'CLR_RAM'
                                           ;@CLR_RAM Sys_Init                  Allocated to registers ;size:2
                                           ;@CLR_RAM IO_Init                   Allocated to registers ;size:2
                                           ;@CLR_RAM TIMER0_INT_Init           Allocated to registers ;size:2
                                           ;@CLR_RAM TIMER1_PWM_Init           Allocated to registers ;size:2
                                           ;@CLR_RAM TIMER2_PWM_Init           Allocated to registers ;size:2
                                           ;@CLR_RAM SCAN_KEY_CTR              Allocated to registers ;size:2
                                           ;@CLR_RAM SCAN_CHARGE_CTR           Allocated to registers ;size:2
                                           ;@CLR_RAM SCAN_SMG_CTR              Allocated to registers ;size:2
                                           ;@CLR_RAM SCAN_SMG_DIS              Allocated to registers ;size:2
                                           ;@CLR_RAM GET_SMG_VALUE             Allocated to registers ;size:2
                                           ;@CLR_RAM SET_DL_DIS                Allocated to registers ;size:2
                                           ;@CLR_RAM SCAN_FUNTION_CTR          Allocated to registers ;size:2
                                           ;@CLR_RAM SCAN_SLEEP_CTR            Allocated to registers ;size:2
                                           ;@CLR_RAM SCAN_HOT_BAT_AD           Allocated to registers ;size:2
                                           ;@CLR_RAM ADC_Power_On_Stability    Allocated to registers ;size:2
                                           ;@CLR_RAM ADC_Zero_ADJ              Allocated to registers ;size:2
                                           ;@CLR_RAM INDF0bits                 Allocated to registers ;size:1
                                           ;@CLR_RAM INDF1bits                 Allocated to registers ;size:1
                                           ;@CLR_RAM INDF2bits                 Allocated to registers ;size:1
                                           ;@CLR_RAM HIBYTEbits                Allocated to registers ;size:1
                                           ;@CLR_RAM FSR0bits                  Allocated to registers ;size:1
                                           ;@CLR_RAM FSR1bits                  Allocated to registers ;size:1
                                           ;@CLR_RAM PCLbits                   Allocated to registers ;size:1
                                           ;@CLR_RAM PFLAGbits                 Allocated to registers ;size:1
                                           ;@CLR_RAM MCRbits                   Allocated to registers ;size:1
                                           ;@CLR_RAM INDF3bits                 Allocated to registers ;size:1
                                           ;@CLR_RAM INTEbits                  Allocated to registers ;size:1
                                           ;@CLR_RAM INTFbits                  Allocated to registers ;size:1
                                           ;@CLR_RAM DRVCRbits                 Allocated to registers ;size:1
                                           ;@CLR_RAM PFRCCRbits                Allocated to registers ;size:1
                                           ;@CLR_RAM P1KBCRbits                Allocated to registers ;size:1
                                           ;@CLR_RAM PFRCCALbits               Allocated to registers ;size:1
                                           ;@CLR_RAM IOP0bits                  Allocated to registers ;size:1
                                           ;@CLR_RAM OEP0bits                  Allocated to registers ;size:1
                                           ;@CLR_RAM PUP0bits                  Allocated to registers ;size:1
                                           ;@CLR_RAM PDP0bits                  Allocated to registers ;size:1
                                           ;@CLR_RAM IOP1bits                  Allocated to registers ;size:1
                                           ;@CLR_RAM OEP1bits                  Allocated to registers ;size:1
                                           ;@CLR_RAM PUP1bits                  Allocated to registers ;size:1
                                           ;@CLR_RAM PDP1bits                  Allocated to registers ;size:1
                                           ;@CLR_RAM T0CRbits                  Allocated to registers ;size:1
                                           ;@CLR_RAM T0CNTbits                 Allocated to registers ;size:1
                                           ;@CLR_RAM T0LOADbits                Allocated to registers ;size:1
                                           ;@CLR_RAM T0DATAbits                Allocated to registers ;size:1
                                           ;@CLR_RAM T1CRbits                  Allocated to registers ;size:1
                                           ;@CLR_RAM T1CNTbits                 Allocated to registers ;size:1
                                           ;@CLR_RAM T1LOADbits                Allocated to registers ;size:1
                                           ;@CLR_RAM T1DATAbits                Allocated to registers ;size:1
                                           ;@CLR_RAM T2CRbits                  Allocated to registers ;size:1
                                           ;@CLR_RAM T2CNTbits                 Allocated to registers ;size:1
                                           ;@CLR_RAM T2LOADbits                Allocated to registers ;size:1
                                           ;@CLR_RAM T2DATAbits                Allocated to registers ;size:1
                                           ;@CLR_RAM T3CRbits                  Allocated to registers ;size:1
                                           ;@CLR_RAM T3CNTbits                 Allocated to registers ;size:1
                                           ;@CLR_RAM T3LOADbits                Allocated to registers ;size:1
                                           ;@CLR_RAM PWM0DRbits                Allocated to registers ;size:1
                                           ;@CLR_RAM PWM1DRbits                Allocated to registers ;size:1
                                           ;@CLR_RAM PWM2DRbits                Allocated to registers ;size:1
                                           ;@CLR_RAM PWMCR0bits                Allocated to registers ;size:1
                                           ;@CLR_RAM PWMCR1bits                Allocated to registers ;size:1
                                           ;@CLR_RAM OSCMRbits                 Allocated to registers ;size:1
                                           ;@CLR_RAM LVDCRbits                 Allocated to registers ;size:1
                                           ;@CLR_RAM ADCR0bits                 Allocated to registers ;size:1
                                           ;@CLR_RAM ADCR1bits                 Allocated to registers ;size:1
                                           ;@CLR_RAM ADCR2bits                 Allocated to registers ;size:1
                                           ;@CLR_RAM OSADJCRbits               Allocated to registers ;size:1
                                           ;@CLR_RAM ADRHbits                  Allocated to registers ;size:1
                                           ;@CLR_RAM ADRLbits                  Allocated to registers ;size:1
                                           ;@CLR_RAM ADIOS0bits                Allocated to registers ;size:1
                                           ;@CLR_RAM ADIOS1bits                Allocated to registers ;size:1
                                           ;@CLR_RAM PMODbits                  Allocated to registers ;size:1
                                           ;@CLR_RAM PWMCR3bits                Allocated to registers ;size:1
                                           ;@CLR_RAM PWMCR2bits                Allocated to registers ;size:1
                                           ;@CLR_RAM PFRCAUXbits               Allocated to registers ;size:1
                                           ;@CLR_RAM HIRCCALbits               Allocated to registers ;size:1
                                           ;@CLR_RAM flag1                     Allocated to registers ;size:1
                                           ;@CLR_RAM flag2                     Allocated to registers ;size:1
                                           ;@CLR_RAM KEY_FLAG                  Allocated to registers ;size:1
                                           ;@CLR_RAM B_SMG_S                   Allocated to registers ;size:1
                                           ;@CLR_RAM B_SMG_B                   Allocated to registers ;size:1
                                           ;@CLR_RAM B_SMG_C                   Allocated to registers ;size:1
                                           ;@CLR_RAM abuf                      Allocated to registers ;size:1
                                           ;@CLR_RAM statusbuf                 Allocated to registers ;size:1
                                           ;@CLR_RAM KEY_CNT1                  Allocated to registers ;size:2
                                           ;@CLR_RAM KEY_CNT2                  Allocated to registers ;size:1
                                           ;@CLR_RAM MOTO_MODE                 Allocated to registers ;size:1
                                           ;@CLR_RAM BUFF_MOTO                 Allocated to registers ;size:1
                                           ;@CLR_RAM BUFF_SMG_DAT              Allocated to registers ;size:1
                                           ;@CLR_RAM SMG_MODE                  Allocated to registers ;size:1
                                           ;@CLR_RAM B_BUFF_0                  Allocated to registers ;size:1
                                           ;@CLR_RAM B_BUFF_1                  Allocated to registers ;size:1
                                           ;@CLR_RAM TIME_500US_CNT            Allocated to registers ;size:1
                                           ;@CLR_RAM DL_DIS_CNT                Allocated to registers ;size:1
                                           ;@CLR_RAM TIME_1MS_CNT              Allocated to registers ;size:1
                                           ;@CLR_RAM R_AD_CNT1                 Allocated to registers ;size:1
                                           ;@CLR_RAM G_VAL                     Allocated to registers ;size:1
                                           ;@CLR_RAM CHARGE_CNT1               Allocated to registers ;size:1
                                           ;@CLR_RAM CHARGE_CNT2               Allocated to registers ;size:1
                                           ;@CLR_RAM CHARGE_CNT3               Allocated to registers ;size:1
                                           ;@CLR_RAM SL_CNT                    Allocated to registers ;size:1
                                           ;@CLR_RAM LED_MODE                  Allocated to registers ;size:1
                                           ;@CLR_RAM BAT_CNT5                  Allocated to registers ;size:1
                                           ;@CLR_RAM AD_MODE                   Allocated to registers ;size:1
                                           ;@CLR_RAM MOTO_CNT1                 Allocated to registers ;size:1
                                           ;@CLR_RAM MOTO_CNT2                 Allocated to registers ;size:1
                                           ;@CLR_RAM R_AD_CNT2                 Allocated to registers ;size:1
                                           ;@CLR_RAM BUFF_M_CNT                Allocated to registers ;size:1
                                           ;@CLR_RAM CHARG_DIS_CNT             Allocated to registers ;size:2
                                           ;@CLR_RAM MOTO_DIS_CNT              Allocated to registers ;size:2
                                           ;@CLR_RAM CHARGE_CNT                Allocated to registers ;size:2
                                           ;@CLR_RAM DL_DIS_CNT1               Allocated to registers ;size:2
                                           ;@CLR_RAM DL_DIS_CNT2               Allocated to registers ;size:2
                                           ;@CLR_RAM BUFF_BAT_VALUE            Allocated to registers ;size:2
                                           ;@CLR_RAM SET_BAT_VALUE             Allocated to registers ;size:2
                                           ;@CLR_RAM IN_LOAD_CNT1              Allocated to registers ;size:2
                                           ;@CLR_RAM IN_LOAD_CNT2              Allocated to registers ;size:2
                                           ;@CLR_RAM W_OVER_ALL1               Allocated to registers ;size:2
                                           ;@CLR_RAM W_OVER_ALL2               Allocated to registers ;size:2
                                           ;@CLR_RAM BUFF_OVER_ALL2            Allocated to registers ;size:2
                                           ;@CLR_RAM WAIT_ADC_CHANGE           Allocated to registers ;size:2
                                           ;@CLR_RAM WAIT_ADC_CHANGE1          Allocated to registers ;size:2
                                           ;@CLR_RAM g_temp_value              Allocated to registers ;size:2
                                           ;@CLR_RAM g_temp_value1             Allocated to registers ;size:2
                                           ;@CLR_RAM PL_DIS_CNT1               Allocated to registers ;size:2
                                           ;@CLR_RAM INDF0                     Allocated to registers ;size:1
                                           ;@CLR_RAM INDF1                     Allocated to registers ;size:1
                                           ;@CLR_RAM INDF2                     Allocated to registers ;size:1
                                           ;@CLR_RAM HIBYTE                    Allocated to registers ;size:1
                                           ;@CLR_RAM FSR0                      Allocated to registers ;size:1
                                           ;@CLR_RAM FSR1                      Allocated to registers ;size:1
                                           ;@CLR_RAM PCL                       Allocated to registers ;size:1
                                           ;@CLR_RAM PFLAG                     Allocated to registers ;size:1
                                           ;@CLR_RAM MCR                       Allocated to registers ;size:1
                                           ;@CLR_RAM INDF3                     Allocated to registers ;size:1
                                           ;@CLR_RAM INTE                      Allocated to registers ;size:1
                                           ;@CLR_RAM INTF                      Allocated to registers ;size:1
                                           ;@CLR_RAM DRVCR                     Allocated to registers ;size:1
                                           ;@CLR_RAM PFRCCR                    Allocated to registers ;size:1
                                           ;@CLR_RAM P1KBCR                    Allocated to registers ;size:1
                                           ;@CLR_RAM PFRCCAL                   Allocated to registers ;size:1
                                           ;@CLR_RAM IOP0                      Allocated to registers ;size:1
                                           ;@CLR_RAM OEP0                      Allocated to registers ;size:1
                                           ;@CLR_RAM PUP0                      Allocated to registers ;size:1
                                           ;@CLR_RAM PDP0                      Allocated to registers ;size:1
                                           ;@CLR_RAM IOP1                      Allocated to registers ;size:1
                                           ;@CLR_RAM OEP1                      Allocated to registers ;size:1
                                           ;@CLR_RAM PUP1                      Allocated to registers ;size:1
                                           ;@CLR_RAM PDP1                      Allocated to registers ;size:1
                                           ;@CLR_RAM T0CR                      Allocated to registers ;size:1
                                           ;@CLR_RAM T0CNT                     Allocated to registers ;size:1
                                           ;@CLR_RAM T0LOAD                    Allocated to registers ;size:1
                                           ;@CLR_RAM T0DATA                    Allocated to registers ;size:1
                                           ;@CLR_RAM T1CR                      Allocated to registers ;size:1
                                           ;@CLR_RAM T1CNT                     Allocated to registers ;size:1
                                           ;@CLR_RAM T1LOAD                    Allocated to registers ;size:1
                                           ;@CLR_RAM T1DATA                    Allocated to registers ;size:1
                                           ;@CLR_RAM T2CR                      Allocated to registers ;size:1
                                           ;@CLR_RAM T2CNT                     Allocated to registers ;size:1
                                           ;@CLR_RAM T2LOAD                    Allocated to registers ;size:1
                                           ;@CLR_RAM T2DATA                    Allocated to registers ;size:1
                                           ;@CLR_RAM T3CR                      Allocated to registers ;size:1
                                           ;@CLR_RAM T3CNT                     Allocated to registers ;size:1
                                           ;@CLR_RAM T3LOAD                    Allocated to registers ;size:1
                                           ;@CLR_RAM PWM0DR                    Allocated to registers ;size:1
                                           ;@CLR_RAM PWM1DR                    Allocated to registers ;size:1
                                           ;@CLR_RAM PWM2DR                    Allocated to registers ;size:1
                                           ;@CLR_RAM PWMCR0                    Allocated to registers ;size:1
                                           ;@CLR_RAM PWMCR1                    Allocated to registers ;size:1
                                           ;@CLR_RAM OSCMR                     Allocated to registers ;size:1
                                           ;@CLR_RAM LVDCR                     Allocated to registers ;size:1
                                           ;@CLR_RAM ADCR0                     Allocated to registers ;size:1
                                           ;@CLR_RAM ADCR1                     Allocated to registers ;size:1
                                           ;@CLR_RAM ADCR2                     Allocated to registers ;size:1
                                           ;@CLR_RAM OSADJCR                   Allocated to registers ;size:1
                                           ;@CLR_RAM ADRH                      Allocated to registers ;size:1
                                           ;@CLR_RAM ADRL                      Allocated to registers ;size:1
                                           ;@CLR_RAM ADIOS0                    Allocated to registers ;size:1
                                           ;@CLR_RAM ADIOS1                    Allocated to registers ;size:1
                                           ;@CLR_RAM PMOD                      Allocated to registers ;size:1
                                           ;@CLR_RAM PWMCR3                    Allocated to registers ;size:1
                                           ;@CLR_RAM PWMCR2                    Allocated to registers ;size:1
                                           ;@CLR_RAM PFRCAUX                   Allocated to registers ;size:1
                                           ;@CLR_RAM HIRCCAL                   Allocated to registers ;size:1
                                           ;@end Allocation info for local variables in function 'CLR_RAM';
                                           ;@Allocation info for local variables in function 'IO_Init'
                                           ;@end Allocation info for local variables in function 'IO_Init';
                                           ;@Allocation info for local variables in function 'TIMER0_INT_Init'
                                           ;@end Allocation info for local variables in function 'TIMER0_INT_Init';
                                           ;@Allocation info for local variables in function 'TIMER1_PWM_Init'
                                           ;@end Allocation info for local variables in function 'TIMER1_PWM_Init';
                                           ;@Allocation info for local variables in function 'Sys_Init'
                                           ;@end Allocation info for local variables in function 'Sys_Init';
                                           ;@Allocation info for local variables in function 'main'
                                           ;@end Allocation info for local variables in function 'main';
                                           ;@Allocation info for local variables in function 'SCAN_KEY_CTR'
                                           ;@end Allocation info for local variables in function 'SCAN_KEY_CTR';
                                           ;@Allocation info for local variables in function 'SCAN_CHARGE_CTR'
                                           ;@end Allocation info for local variables in function 'SCAN_CHARGE_CTR';
                                           ;@Allocation info for local variables in function 'SCAN_FUNTION_CTR'
                                           ;@end Allocation info for local variables in function 'SCAN_FUNTION_CTR';
                                           ;@Allocation info for local variables in function 'SCAN_SMG_CTR'
                                           ;@end Allocation info for local variables in function 'SCAN_SMG_CTR';
                                           ;@Allocation info for local variables in function 'SCAN_SMG_DIS'
                                           ;@end Allocation info for local variables in function 'SCAN_SMG_DIS';
                                           ;@Allocation info for local variables in function 'GET_SMG_VALUE'
                                           ;@GET_SMG_VALUE x                         Allocated to registers r0x1048 ;size:1
                                           ;@end Allocation info for local variables in function 'GET_SMG_VALUE';
                                           ;@Allocation info for local variables in function 'SET_DL_DIS'
                                           ;@SET_DL_DIS DL                        Allocated to registers r0x1049 ;size:1
                                           ;@end Allocation info for local variables in function 'SET_DL_DIS';
                                           ;@Allocation info for local variables in function 'SCAN_HOT_BAT_AD'
                                           ;@end Allocation info for local variables in function 'SCAN_HOT_BAT_AD';
                                           ;@Allocation info for local variables in function 'ADC_Power_On_Stability'
                                           ;@ADC_Power_On_Stability cnt                       Allocated to registers r0x1040 ;size:1
                                           ;@end Allocation info for local variables in function 'ADC_Power_On_Stability';
                                           ;@Allocation info for local variables in function 'ADC_Zero_ADJ'
                                           ;@end Allocation info for local variables in function 'ADC_Zero_ADJ';
                                           ;@Allocation info for local variables in function 'SCAN_SLEEP_CTR'
                                           ;@end Allocation info for local variables in function 'SCAN_SLEEP_CTR';
                                           ;@Allocation info for local variables in function 'int_isr'
                                           ;@end Allocation info for local variables in function 'int_isr';
                                           
                                           ;--------------------------------------------------------
                                           ; overlayable items in internal ram 
                                           ;--------------------------------------------------------
                                           ;	udata_ovr
                                           ;--------------------------------------------------------
                                           ; reset vector 
                                           ;--------------------------------------------------------
                                           STARTUP	code 0x0000
000000   a02e     goto    0x2e             	goto	_main
                                           ;--------------------------------------------------------
                                           ; interrupt and initialization code
                                           ;--------------------------------------------------------
                                           c_interrupt	code	0x8
                                           __sdcc_interrupt
                                           ;***
                                           ;  pBlock Stats: dbName = I
                                           ;***
                                           ;entry:  _int_isr	;Function start
                                           ; 0 exit points
                                           ;functions called:
                                           ;   _SCAN_SMG_CTR
                                           ;   _SCAN_SMG_CTR
                                           ;2 compiler assigned registers:
                                           ;   r0x1050
                                           ;   r0x1051
                                           ;; Starting pCode block
                                           _int_isr	;Function start
                                           ; 0 exit points
                                           ;	.line	1274; "MC32P7351.c"	//============================T0==========================
000008   5665     movra   0x65             	movra	_abuf
000009   4587     swapar  0x187            	swapar	_PFLAG
00000a   5666     movra   0x66             	movra	_statusbuf
                                           ;	.line	1276; "MC32P7351.c"	{
00000b   7618     clrr    0x18             	CLRR	r0x1050
00000c   f38b     jbclr   0x18b, 0x1       	JBCLR	_INTFbits,1
00000d   6618     incr    0x18             	INCR	r0x1050
00000e   7619     clrr    0x19             	CLRR	r0x1051
00000f   f38a     jbclr   0x18a, 0x1       	JBCLR	_INTEbits,1
000010   6619     incr    0x19             	INCR	r0x1051
000011   5819     movar   0x19             	MOVAR	r0x1051
000012   7a18     andra   0x18             	ANDRA	r0x1050
000013   3c00     movai   0                	MOVAI	0x00
000014   5c18     orar    0x18             	ORAR	r0x1050
000015   f587     jbclr   0x187, 0x2       	JBCLR	PFLAG,2
000016   a029     goto    0x29             	GOTO	_01059_DS_
                                           ;	.line	1278; "MC32P7351.c"	T1CNT=178;
000017   d38b     bclr    0x18b, 0x1       	BCLR	_INTFbits,1
                                           ;	.line	1279; "MC32P7351.c"	TIME_500US_CNT++;
000018   3cb2     movai   0xb2             	MOVAI	0xb2
000019   579d     movra   0x19d            	MOVRA	_T1CNT
                                           ;	.line	1281; "MC32P7351.c"	TIME_1MS_CNT++;
00001a   666e     incr    0x6e             	INCR	_TIME_500US_CNT
                                           ;	.line	1282; "MC32P7351.c"	if(TIME_1MS_CNT>19)
00001b   6670     incr    0x70             	INCR	_TIME_1MS_CNT
                                           ;;swapping arguments (AOP_TYPEs 1/3)
                                           ;;unsigned compare: left >= lit(0x14=20), size=1
                                           ;	.line	1283; "MC32P7351.c"	{
00001c   3c14     movai   0x14             	MOVAI	0x14
00001d   4870     rsubar  0x70             	RSUBAR	_TIME_1MS_CNT
00001e   e187     jbset   0x187, 0         	JBSET	PFLAG,0
00001f   a022     goto    0x22             	GOTO	_01055_DS_
                                           ;;genSkipc:3291: created from rifx:013B5EFC
                                           ;	.line	1285; "MC32P7351.c"	TIME_1MS_F=1;
000020   7670     clrr    0x70             	CLRR	_TIME_1MS_CNT
                                           ;	.line	1286; "MC32P7351.c"	}
000021   c061     bset    0x61, 0          	BSET	_KEY_FLAG,0
                                           ;;swapping arguments (AOP_TYPEs 1/3)
                                           ;;unsigned compare: left >= lit(0xA=10), size=1
                                           _01055_DS_
                                           ;	.line	1289; "MC32P7351.c"	{
000022   3c0a     movai   0xa              	MOVAI	0x0a
000023   486e     rsubar  0x6e             	RSUBAR	_TIME_500US_CNT
000024   e187     jbset   0x187, 0         	JBSET	PFLAG,0
000025   a028     goto    0x28             	GOTO	_01057_DS_
                                           ;;genSkipc:3291: created from rifx:013B5EFC
                                           ;	.line	1291; "MC32P7351.c"	TIME_500US_F=1;
000026   766e     clrr    0x6e             	CLRR	_TIME_500US_CNT
                                           ;	.line	1292; "MC32P7351.c"	}
000027   c85f     bset    0x5f, 0x4        	BSET	_flag1,4
                                           _01057_DS_
                                           ;	.line	1294; "MC32P7351.c"	}
000028   847c     call    0x47c            	CALL	_SCAN_SMG_CTR
                                           _01059_DS_
                                           ;	.line	1302; "MC32P7351.c"	}
000029   4466     swapar  0x66             	swapar	_statusbuf
00002a   5787     movra   0x187            	movra	_PFLAG
00002b   4665     swapr   0x65             	swapr	_abuf
00002c   4465     swapar  0x65             	swapar	_abuf
                                           END_OF_INTERRUPT
                                           ;	.line	1303; "MC32P7351.c"	/**************************** end of file *********************************************/
00002d   000d     retie                    	RETIE	
                                           
                                           ;--------------------------------------------------------
                                           ; code
                                           ;--------------------------------------------------------
                                           code_MC32P7351	code
                                           ;***
                                           ;  pBlock Stats: dbName = M
                                           ;***
                                           ;entry:  _main	;Function start
                                           ; 2 exit points
                                           ;has an exit
                                           ;functions called:
                                           ;   _Sys_Init
                                           ;   _SCAN_HOT_BAT_AD
                                           ;   _SCAN_KEY_CTR
                                           ;   _SCAN_CHARGE_CTR
                                           ;   _SCAN_FUNTION_CTR
                                           ;   _SCAN_SMG_DIS
                                           ;   _SCAN_SLEEP_CTR
                                           ;   _Sys_Init
                                           ;   _SCAN_HOT_BAT_AD
                                           ;   _SCAN_KEY_CTR
                                           ;   _SCAN_CHARGE_CTR
                                           ;   _SCAN_FUNTION_CTR
                                           ;   _SCAN_SMG_DIS
                                           ;   _SCAN_SLEEP_CTR
                                           ;; Starting pCode block
                                           _main	;Function start
                                           ; 2 exit points
                                           ;	.line	130; "MC32P7351.c"	Sys_Init();
00002e   85df     call    0x5df            	CALL	_Sys_Init
                                           _00134_DS_
                                           ;	.line	133; "MC32P7351.c"	if(TIME_500US_F)
00002f   e85f     jbset   0x5f, 0x4        	JBSET	_flag1,4
000030   a034     goto    0x34             	GOTO	_00130_DS_
                                           ;	.line	135; "MC32P7351.c"	TIME_500US_F=0;
000031   d85f     bclr    0x5f, 0x4        	BCLR	_flag1,4
                                           ;	.line	136; "MC32P7351.c"	ClrWdt();
000032   000e     clrwdt                   	clrwdt
                                           ;	.line	137; "MC32P7351.c"	SCAN_HOT_BAT_AD();
000033   8105     call    0x105            	CALL	_SCAN_HOT_BAT_AD
                                           _00130_DS_
                                           ;	.line	140; "MC32P7351.c"	if(TIME_1MS_F)
000034   e061     jbset   0x61, 0          	JBSET	_KEY_FLAG,0
000035   a02f     goto    0x2f             	GOTO	_00134_DS_
                                           ;	.line	142; "MC32P7351.c"	TIME_1MS_F=0;
000036   d061     bclr    0x61, 0          	BCLR	_KEY_FLAG,0
                                           ;	.line	143; "MC32P7351.c"	ClrWdt();
000037   000e     clrwdt                   	clrwdt
                                           ;	.line	144; "MC32P7351.c"	SCAN_KEY_CTR();
000038   859b     call    0x59b            	CALL	_SCAN_KEY_CTR
                                           ;	.line	145; "MC32P7351.c"	SCAN_CHARGE_CTR();
000039   855d     call    0x55d            	CALL	_SCAN_CHARGE_CTR
                                           ;	.line	146; "MC32P7351.c"	SCAN_FUNTION_CTR();
00003a   850f     call    0x50f            	CALL	_SCAN_FUNTION_CTR
                                           ;	.line	147; "MC32P7351.c"	SCAN_SMG_DIS();
00003b   8355     call    0x355            	CALL	_SCAN_SMG_DIS
                                           ;	.line	148; "MC32P7351.c"	SCAN_SLEEP_CTR();
00003c   803f     call    0x3f             	CALL	_SCAN_SLEEP_CTR
00003d   a02f     goto    0x2f             	GOTO	_00134_DS_
                                           ;	.line	151; "MC32P7351.c"	}
00003e   000c     return                   	RETURN	
                                           ; exit point of _main
                                           
                                           ;***
                                           ;  pBlock Stats: dbName = C
                                           ;***
                                           ;entry:  _SCAN_SLEEP_CTR	;Function start
                                           ; 2 exit points
                                           ;has an exit
                                           ;functions called:
                                           ;   _IO_Init
                                           ;   _IO_Init
                                           ;   _TIMER0_INT_Init
                                           ;   _TIMER1_PWM_Init
                                           ;   _IO_Init
                                           ;   _IO_Init
                                           ;   _TIMER0_INT_Init
                                           ;   _TIMER1_PWM_Init
                                           ;; Starting pCode block
                                           _SCAN_SLEEP_CTR	;Function start
                                           ; 2 exit points
                                           ;	.line	1215; "MC32P7351.c"	{
00003f   e794     jbset   0x194, 0x3       	JBSET	_IOP1bits,3
000040   a04f     goto    0x4f             	GOTO	_01038_DS_
000041   f05f     jbclr   0x5f, 0          	JBCLR	_flag1,0
000042   a04f     goto    0x4f             	GOTO	_01038_DS_
000043   f461     jbclr   0x61, 0x2        	JBCLR	_KEY_FLAG,2
000044   a04f     goto    0x4f             	GOTO	_01038_DS_
000045   f45f     jbclr   0x5f, 0x2        	JBCLR	_flag1,2
000046   a04f     goto    0x4f             	GOTO	_01038_DS_
000047   f25f     jbclr   0x5f, 0x1        	JBCLR	_flag1,1
000048   a04f     goto    0x4f             	GOTO	_01038_DS_
000049   f394     jbclr   0x194, 0x1       	JBCLR	_IOP1bits,1
00004a   a04f     goto    0x4f             	GOTO	_01038_DS_
00004b   e65f     jbset   0x5f, 0x3        	JBSET	_flag1,3
00004c   a04f     goto    0x4f             	GOTO	_01038_DS_
00004d   fa61     jbclr   0x61, 0x5        	JBCLR	_KEY_FLAG,5
00004e   a051     goto    0x51             	GOTO	_01039_DS_
                                           _01038_DS_
                                           ;	.line	1217; "MC32P7351.c"	return;
00004f   7676     clrr    0x76             	CLRR	_SL_CNT
                                           ;	.line	1218; "MC32P7351.c"	}
000050   a079     goto    0x79             	GOTO	_01049_DS_
                                           _01039_DS_
                                           ;	.line	1220; "MC32P7351.c"	if(SL_CNT<249)
000051   6676     incr    0x76             	INCR	_SL_CNT
                                           ;;unsigned compare: left < lit(0xF9=249), size=1
                                           ;	.line	1221; "MC32P7351.c"	{	
000052   3cf9     movai   0xf9             	MOVAI	0xf9
000053   4876     rsubar  0x76             	RSUBAR	_SL_CNT
000054   f187     jbclr   0x187, 0         	JBCLR	PFLAG,0
000055   a057     goto    0x57             	GOTO	_01048_DS_
                                           ;;genSkipc:3291: created from rifx:013B5EFC
                                           ;	.line	1223; "MC32P7351.c"	}
000056   a079     goto    0x79             	GOTO	_01049_DS_
                                           _01048_DS_
                                           ;	.line	1225; "MC32P7351.c"	ADCR0 = 0B00000000; 						 //ADC12H8L4
000057   7676     clrr    0x76             	CLRR	_SL_CNT
                                           ;	.line	1226; "MC32P7351.c"	ADCR1 = 0x80;								 //322V 
000058   77b0     clrr    0x1b0            	CLRR	_ADCR0
                                           ;	.line	1227; "MC32P7351.c"	ADCR2 = 0xff;								 //15ADCLK 
000059   3c80     movai   0x80             	MOVAI	0x80
00005a   57b1     movra   0x1b1            	MOVRA	_ADCR1
                                           ;	.line	1228; "MC32P7351.c"	IO_Init();
00005b   3cff     movai   0xff             	MOVAI	0xff
00005c   57b2     movra   0x1b2            	MOVRA	_ADCR2
                                           ;	.line	1229; "MC32P7351.c"	P00OE=1;
00005d   8606     call    0x606            	CALL	_IO_Init
                                           ;	.line	1230; "MC32P7351.c"	P01OE=1;
00005e   c191     bset    0x191, 0         	BSET	_OEP0bits,0
                                           ;	.line	1231; "MC32P7351.c"	P02OE=1;
00005f   c391     bset    0x191, 0x1       	BSET	_OEP0bits,1
                                           ;	.line	1232; "MC32P7351.c"	P03OE=1;
000060   c591     bset    0x191, 0x2       	BSET	_OEP0bits,2
                                           ;	.line	1233; "MC32P7351.c"	P15OE=1;
000061   c791     bset    0x191, 0x3       	BSET	_OEP0bits,3
                                           ;	.line	1234; "MC32P7351.c"	ClrWdt();		
000062   cb95     bset    0x195, 0x5       	BSET	_OEP1bits,5
                                           ;	.line	1236; "MC32P7351.c"	GIE = 0;	//
000063   000e     clrwdt                   	clrwdt
                                           ;	.line	1237; "MC32P7351.c"	T0EN = 0;
000064   df88     bclr    0x188, 0x7       	BCLR	_MCRbits,7
                                           ;	.line	1238; "MC32P7351.c"	T0IE = 0;
000065   df98     bclr    0x198, 0x7       	BCLR	_T0CRbits,7
                                           ;	.line	1239; "MC32P7351.c"	P1KBCR = 0b00001010;	//P14
000066   d18a     bclr    0x18a, 0         	BCLR	_INTEbits,0
                                           ;	.line	1240; "MC32P7351.c"	KBIE = 1;				//
000067   3c0a     movai   0xa              	MOVAI	0x0a
000068   578e     movra   0x18e            	MOVRA	_P1KBCR
                                           ;	.line	1241; "MC32P7351.c"	Nop();
000069   c98a     bset    0x18a, 0x4       	BSET	_INTEbits,4
                                           ;	.line	1242; "MC32P7351.c"	Nop();
00006a   0000     nop                      	nop
                                           ;	.line	1243; "MC32P7351.c"	Nop();
00006b   0000     nop                      	nop
                                           ;	.line	1244; "MC32P7351.c"	Stop(); 				//
00006c   0000     nop                      	nop
                                           ;	.line	1245; "MC32P7351.c"	Nop();
00006d   000b     stop                     	stop
                                           ;	.line	1246; "MC32P7351.c"	Nop();
00006e   0000     nop                      	nop
                                           ;	.line	1247; "MC32P7351.c"	ClrWdt();		
00006f   0000     nop                      	nop
                                           ;	.line	1248; "MC32P7351.c"	KBIE = 0;				//
000070   000e     clrwdt                   	clrwdt
                                           ;	.line	1249; "MC32P7351.c"	P1KBCR = 0b00000000;	//
000071   d98a     bclr    0x18a, 0x4       	BCLR	_INTEbits,4
                                           ;	.line	1250; "MC32P7351.c"	IO_Init();
000072   778e     clrr    0x18e            	CLRR	_P1KBCR
                                           ;	.line	1251; "MC32P7351.c"	TIMER0_INT_Init();		//T0
000073   8606     call    0x606            	CALL	_IO_Init
                                           ;	.line	1252; "MC32P7351.c"	TIMER1_PWM_Init();
000074   85fa     call    0x5fa            	CALL	_TIMER0_INT_Init
                                           ;	.line	1253; "MC32P7351.c"	GIE = 1;				//
000075   85f3     call    0x5f3            	CALL	_TIMER1_PWM_Init
                                           ;	.line	1254; "MC32P7351.c"	Nop();
000076   cf88     bset    0x188, 0x7       	BSET	_MCRbits,7
                                           ;	.line	1255; "MC32P7351.c"	Nop();
000077   0000     nop                      	nop
                                           ;	.line	1256; "MC32P7351.c"	
000078   0000     nop                      	nop
                                           _01049_DS_
                                           ;	.line	1259; "MC32P7351.c"	
000079   000c     return                   	RETURN	
                                           ; exit point of _SCAN_SLEEP_CTR
                                           
                                           ;***
                                           ;  pBlock Stats: dbName = C
                                           ;***
                                           ;entry:  _ADC_Zero_ADJ	;Function start
                                           ; 2 exit points
                                           ;has an exit
                                           ;2 compiler assigned registers:
                                           ;   r0x103E
                                           ;   r0x103F
                                           ;; Starting pCode block
                                           _ADC_Zero_ADJ	;Function start
                                           ; 2 exit points
                                           ;	.line	1149; "MC32P7351.c"	ADCR1 = 0x80;                                //322V
00007a   3ceb     movai   0xeb             	MOVAI	0xeb
00007b   57b0     movra   0x1b0            	MOVRA	_ADCR0
                                           ;	.line	1150; "MC32P7351.c"	ADCR2 = 0xff;                                //15ADCLK
00007c   3c80     movai   0x80             	MOVAI	0x80
00007d   57b1     movra   0x1b1            	MOVRA	_ADCR1
                                           ;	.line	1151; "MC32P7351.c"	OSADJCR |= DEF_SET_BIT7;                     //
00007e   3cff     movai   0xff             	MOVAI	0xff
00007f   57b2     movra   0x1b2            	MOVRA	_ADCR2
                                           ;	.line	1152; "MC32P7351.c"	ADEOC = 0;
000080   cfb3     bset    0x1b3, 0x7       	BSET	_OSADJCR,7
                                           ;	.line	1153; "MC32P7351.c"	while (!ADEOC);
000081   d3b0     bclr    0x1b0, 0x1       	BCLR	_ADCR0bits,1
                                           _00909_DS_
                                           ;	.line	1154; "MC32P7351.c"	if ((ADRH == 0) && ((ADRL & 0x0F) == 0))     //0
000082   e3b0     jbset   0x1b0, 0x1       	JBSET	_ADCR0bits,1
000083   a082     goto    0x82             	GOTO	_00909_DS_
                                           ;	.line	1155; "MC32P7351.c"	{
000084   3c00     movai   0                	MOVAI	0x00
000085   5db4     orar    0x1b4            	ORAR	_ADRH
000086   e587     jbset   0x187, 0x2       	JBSET	PFLAG,2
000087   a0bc     goto    0xbc             	GOTO	_00941_DS_
000088   59b5     movar   0x1b5            	MOVAR	_ADRL
000089   5616     movra   0x16             	MOVRA	r0x103E
00008a   5816     movar   0x16             	MOVAR	r0x103E
00008b   3e0f     andai   0xf              	ANDAI	0x0f
00008c   e587     jbset   0x187, 0x2       	JBSET	PFLAG,2
00008d   a0bc     goto    0xbc             	GOTO	_00941_DS_
                                           ;	.line	1157; "MC32P7351.c"	OSADJCR |= 0x3F;
00008e   cdb3     bset    0x1b3, 0x6       	BSET	_OSADJCRbits,6
                                           ;	.line	1158; "MC32P7351.c"	ADEOC = 0;
00008f   3c3f     movai   0x3f             	MOVAI	0x3f
000090   5fb3     orra    0x1b3            	ORRA	_OSADJCR
                                           ;	.line	1159; "MC32P7351.c"	while (!ADEOC);
000091   d3b0     bclr    0x1b0, 0x1       	BCLR	_ADCR0bits,1
                                           _00912_DS_
                                           ;	.line	1160; "MC32P7351.c"	if ((ADRH == 0) && ((ADRL & 0x0F) == 0)) //0
000092   e3b0     jbset   0x1b0, 0x1       	JBSET	_ADCR0bits,1
000093   a092     goto    0x92             	GOTO	_00912_DS_
                                           ;	.line	1161; "MC32P7351.c"	{
000094   3c00     movai   0                	MOVAI	0x00
000095   5db4     orar    0x1b4            	ORAR	_ADRH
000096   e587     jbset   0x187, 0x2       	JBSET	PFLAG,2
000097   a0a1     goto    0xa1             	GOTO	_00925_DS_
000098   59b5     movar   0x1b5            	MOVAR	_ADRL
000099   5616     movra   0x16             	MOVRA	r0x103E
00009a   5816     movar   0x16             	MOVAR	r0x103E
00009b   3e0f     andai   0xf              	ANDAI	0x0f
00009c   e587     jbset   0x187, 0x2       	JBSET	PFLAG,2
00009d   a0a1     goto    0xa1             	GOTO	_00925_DS_
                                           ;	.line	1163; "MC32P7351.c"	return PASS;
00009e   d1b0     bclr    0x1b0, 0         	BCLR	_ADCR0bits,0
                                           ;	.line	1164; "MC32P7351.c"	}
00009f   3c00     movai   0                	MOVAI	0x00
0000a0   a0dd     goto    0xdd             	GOTO	_00947_DS_
                                           _00925_DS_
                                           ;	.line	1170; "MC32P7351.c"	{
0000a1   59b3     movar   0x1b3            	MOVAR	_OSADJCR
0000a2   5616     movra   0x16             	MOVRA	r0x103E
0000a3   5816     movar   0x16             	MOVAR	r0x103E
0000a4   3e3f     andai   0x3f             	ANDAI	0x3f
0000a5   e587     jbset   0x187, 0x2       	JBSET	PFLAG,2
0000a6   a0a8     goto    0xa8             	GOTO	_01033_DS_
0000a7   a0b9     goto    0xb9             	GOTO	_00922_DS_
                                           _01033_DS_
                                           ;	.line	1172; "MC32P7351.c"	ADEOC = 0;
0000a8   6fb3     decr    0x1b3            	DECR	_OSADJCR
                                           ;	.line	1173; "MC32P7351.c"	while (!ADEOC);
0000a9   d3b0     bclr    0x1b0, 0x1       	BCLR	_ADCR0bits,1
                                           _00915_DS_
                                           ;	.line	1174; "MC32P7351.c"	if ((ADRH == 0) && ((ADRL & 0x0F) == 0))//0
0000aa   e3b0     jbset   0x1b0, 0x1       	JBSET	_ADCR0bits,1
0000ab   a0aa     goto    0xaa             	GOTO	_00915_DS_
                                           ;	.line	1175; "MC32P7351.c"	{
0000ac   3c00     movai   0                	MOVAI	0x00
0000ad   5db4     orar    0x1b4            	ORAR	_ADRH
0000ae   e587     jbset   0x187, 0x2       	JBSET	PFLAG,2
0000af   a0a1     goto    0xa1             	GOTO	_00925_DS_
0000b0   59b5     movar   0x1b5            	MOVAR	_ADRL
0000b1   5616     movra   0x16             	MOVRA	r0x103E
0000b2   5816     movar   0x16             	MOVAR	r0x103E
0000b3   3e0f     andai   0xf              	ANDAI	0x0f
0000b4   e587     jbset   0x187, 0x2       	JBSET	PFLAG,2
0000b5   a0a1     goto    0xa1             	GOTO	_00925_DS_
                                           ;	.line	1177; "MC32P7351.c"	return PASS;
0000b6   d1b0     bclr    0x1b0, 0         	BCLR	_ADCR0bits,0
                                           ;	.line	1178; "MC32P7351.c"	}
0000b7   3c00     movai   0                	MOVAI	0x00
0000b8   a0dd     goto    0xdd             	GOTO	_00947_DS_
                                           _00922_DS_
                                           ;	.line	1183; "MC32P7351.c"	return FAIL;
0000b9   d1b0     bclr    0x1b0, 0         	BCLR	_ADCR0bits,0
                                           ;	.line	1184; "MC32P7351.c"	}
0000ba   3c01     movai   0x1              	MOVAI	0x01
0000bb   a0dd     goto    0xdd             	GOTO	_00947_DS_
                                           _00941_DS_
                                           ;	.line	1193; "MC32P7351.c"	{
0000bc   59b3     movar   0x1b3            	MOVAR	_OSADJCR
0000bd   5616     movra   0x16             	MOVRA	r0x103E
0000be   7617     clrr    0x17             	CLRR	r0x103F
0000bf   3c3f     movai   0x3f             	MOVAI	0x3f
0000c0   7a16     andra   0x16             	ANDRA	r0x103E
0000c1   7617     clrr    0x17             	CLRR	r0x103F
0000c2   5816     movar   0x16             	MOVAR	r0x103E
0000c3   393f     xorai   0x3f             	XORAI	0x3f
0000c4   e587     jbset   0x187, 0x2       	JBSET	PFLAG,2
0000c5   a0cd     goto    0xcd             	GOTO	_00938_DS_
0000c6   5817     movar   0x17             	MOVAR	r0x103F
0000c7   3900     xorai   0                	XORAI	0x00
0000c8   e587     jbset   0x187, 0x2       	JBSET	PFLAG,2
0000c9   a0cd     goto    0xcd             	GOTO	_00938_DS_
                                           ;	.line	1195; "MC32P7351.c"	return FAIL;
0000ca   d1b0     bclr    0x1b0, 0         	BCLR	_ADCR0bits,0
                                           ;	.line	1196; "MC32P7351.c"	}
0000cb   3c01     movai   0x1              	MOVAI	0x01
0000cc   a0dd     goto    0xdd             	GOTO	_00947_DS_
                                           _00938_DS_
                                           ;	.line	1200; "MC32P7351.c"	ADEOC = 0;
0000cd   67b3     incr    0x1b3            	INCR	_OSADJCR
                                           ;	.line	1201; "MC32P7351.c"	while (!ADEOC);
0000ce   d3b0     bclr    0x1b0, 0x1       	BCLR	_ADCR0bits,1
                                           _00931_DS_
                                           ;	.line	1202; "MC32P7351.c"	if ((ADRH == 0) && ((ADRL & 0x0F) == 0))//0
0000cf   e3b0     jbset   0x1b0, 0x1       	JBSET	_ADCR0bits,1
0000d0   a0cf     goto    0xcf             	GOTO	_00931_DS_
                                           ;	.line	1203; "MC32P7351.c"	{
0000d1   3c00     movai   0                	MOVAI	0x00
0000d2   5db4     orar    0x1b4            	ORAR	_ADRH
0000d3   e587     jbset   0x187, 0x2       	JBSET	PFLAG,2
0000d4   a0bc     goto    0xbc             	GOTO	_00941_DS_
0000d5   59b5     movar   0x1b5            	MOVAR	_ADRL
0000d6   5616     movra   0x16             	MOVRA	r0x103E
0000d7   5816     movar   0x16             	MOVAR	r0x103E
0000d8   3e0f     andai   0xf              	ANDAI	0x0f
0000d9   e587     jbset   0x187, 0x2       	JBSET	PFLAG,2
0000da   a0bc     goto    0xbc             	GOTO	_00941_DS_
                                           ;	.line	1205; "MC32P7351.c"	return PASS;
0000db   d1b0     bclr    0x1b0, 0         	BCLR	_ADCR0bits,0
                                           ;	.line	1206; "MC32P7351.c"	}
0000dc   3c00     movai   0                	MOVAI	0x00
                                           _00947_DS_
                                           ;	.line	1211; "MC32P7351.c"	void SCAN_SLEEP_CTR(void)
0000dd   000c     return                   	RETURN	
                                           ; exit point of _ADC_Zero_ADJ
                                           
                                           ;***
                                           ;  pBlock Stats: dbName = C
                                           ;***
                                           ;entry:  _ADC_Power_On_Stability	;Function start
                                           ; 2 exit points
                                           ;has an exit
                                           ;2 compiler assigned registers:
                                           ;   r0x1040
                                           ;   r0x1041
                                           ;; Starting pCode block
                                           _ADC_Power_On_Stability	;Function start
                                           ; 2 exit points
                                           ;	.line	1125; "MC32P7351.c"	ADCR1 = 0x80;                      //32VDD
0000de   3cab     movai   0xab             	MOVAI	0xab
0000df   57b0     movra   0x1b0            	MOVRA	_ADCR0
                                           ;	.line	1126; "MC32P7351.c"	ADCR2 = 0xff;                      //15ADCLK
0000e0   3c80     movai   0x80             	MOVAI	0x80
0000e1   57b1     movra   0x1b1            	MOVRA	_ADCR1
                                           ;	.line	1127; "MC32P7351.c"	ADEOC = 0;
0000e2   3cff     movai   0xff             	MOVAI	0xff
0000e3   57b2     movra   0x1b2            	MOVRA	_ADCR2
                                           ;	.line	1128; "MC32P7351.c"	while (!ADEOC);
0000e4   d3b0     bclr    0x1b0, 0x1       	BCLR	_ADCR0bits,1
                                           _00857_DS_
                                           ;	.line	1129; "MC32P7351.c"	cnt = 0;
0000e5   e3b0     jbset   0x1b0, 0x1       	JBSET	_ADCR0bits,1
0000e6   a0e5     goto    0xe5             	GOTO	_00857_DS_
                                           ;	.line	1131; "MC32P7351.c"	{
0000e7   7614     clrr    0x14             	CLRR	r0x1040
                                           ;;shiftRight_Left2ResultLit:5339: shCount=1, size=1, sign=0, same=0, offr=0
                                           _00866_DS_
0000e8   d187     bclr    0x187, 0         	BCLR	PFLAG,0
0000e9   4db4     rrar    0x1b4            	RRAR	_ADRH
0000ea   5615     movra   0x15             	MOVRA	r0x1041
                                           ;;shiftRight_Left2ResultLit:5339: shCount=1, size=1, sign=0, same=1, offr=0
0000eb   d187     bclr    0x187, 0         	BCLR	PFLAG,0
0000ec   4e15     rrr     0x15             	RRR	r0x1041
0000ed   5815     movar   0x15             	MOVAR	r0x1041
0000ee   3910     xorai   0x10             	XORAI	0x10
0000ef   e587     jbset   0x187, 0x2       	JBSET	PFLAG,2
0000f0   a0f2     goto    0xf2             	GOTO	_00903_DS_
0000f1   a104     goto    0x104            	GOTO	_00869_DS_
                                           ;;shiftRight_Left2ResultLit:5339: shCount=1, size=1, sign=0, same=0, offr=0
                                           _00903_DS_
0000f2   d187     bclr    0x187, 0         	BCLR	PFLAG,0
0000f3   4db4     rrar    0x1b4            	RRAR	_ADRH
0000f4   5615     movra   0x15             	MOVRA	r0x1041
                                           ;;shiftRight_Left2ResultLit:5339: shCount=1, size=1, sign=0, same=1, offr=0
0000f5   d187     bclr    0x187, 0         	BCLR	PFLAG,0
0000f6   4e15     rrr     0x15             	RRR	r0x1041
0000f7   5815     movar   0x15             	MOVAR	r0x1041
0000f8   390f     xorai   0xf              	XORAI	0x0f
0000f9   e587     jbset   0x187, 0x2       	JBSET	PFLAG,2
0000fa   a0fc     goto    0xfc             	GOTO	_00904_DS_
0000fb   a104     goto    0x104            	GOTO	_00869_DS_
                                           _00904_DS_
                                           ;	.line	1133; "MC32P7351.c"	while (!ADEOC);
0000fc   d3b0     bclr    0x1b0, 0x1       	BCLR	_ADCR0bits,1
                                           _00860_DS_
                                           ;	.line	1134; "MC32P7351.c"	cnt ++;
0000fd   e3b0     jbset   0x1b0, 0x1       	JBSET	_ADCR0bits,1
0000fe   a0fd     goto    0xfd             	GOTO	_00860_DS_
                                           ;	.line	1135; "MC32P7351.c"	if (cnt >= 200)
0000ff   6614     incr    0x14             	INCR	r0x1040
                                           ;;unsigned compare: left < lit(0xC8=200), size=1
                                           ;	.line	1136; "MC32P7351.c"	return;                    //,
000100   3cc8     movai   0xc8             	MOVAI	0xc8
000101   4814     rsubar  0x14             	RSUBAR	r0x1040
000102   e187     jbset   0x187, 0         	JBSET	PFLAG,0
000103   a0e8     goto    0xe8             	GOTO	_00866_DS_
                                           ;;genSkipc:3291: created from rifx:013B5EFC
                                           _00869_DS_
                                           ;	.line	1139; "MC32P7351.c"	/************************************************
000104   000c     return                   	RETURN	
                                           ; exit point of _ADC_Power_On_Stability
                                           
                                           ;***
                                           ;  pBlock Stats: dbName = C
                                           ;***
                                           ;entry:  _SCAN_HOT_BAT_AD	;Function start
                                           ; 2 exit points
                                           ;has an exit
                                           ;functions called:
                                           ;   __divuint
                                           ;   __divuint
                                           ;   __divuint
                                           ;   __divuint
                                           ;   __divuint
                                           ;   __divuint
                                           ;9 compiler assigned registers:
                                           ;   r0x1042
                                           ;   r0x1043
                                           ;   r0x1044
                                           ;   r0x1045
                                           ;   r0x1046
                                           ;   r0x1047
                                           ;   STK02
                                           ;   STK01
                                           ;   STK00
                                           ;; Starting pCode block
                                           _SCAN_HOT_BAT_AD	;Function start
                                           ; 2 exit points
                                           ;	.line	870; "MC32P7351.c"	{
000105   3c00     movai   0                	MOVAI	0x00
000106   5c79     orar    0x79             	ORAR	_AD_MODE
000107   e587     jbset   0x187, 0x2       	JBSET	PFLAG,2
000108   a110     goto    0x110            	GOTO	_00682_DS_
                                           ;	.line	872; "MC32P7351.c"	ADCR1 = 0x80;					   //322V
000109   3cab     movai   0xab             	MOVAI	0xab
00010a   57b0     movra   0x1b0            	MOVRA	_ADCR0
                                           ;	.line	873; "MC32P7351.c"	ADCR2 = 0xff;					   //15ADCLK
00010b   3c80     movai   0x80             	MOVAI	0x80
00010c   57b1     movra   0x1b1            	MOVRA	_ADCR1
                                           ;	.line	874; "MC32P7351.c"	}
00010d   3cff     movai   0xff             	MOVAI	0xff
00010e   57b2     movra   0x1b2            	MOVRA	_ADCR2
00010f   a2b8     goto    0x2b8            	GOTO	_00683_DS_
                                           _00682_DS_
                                           ;	.line	876; "MC32P7351.c"	{
000110   5879     movar   0x79             	MOVAR	_AD_MODE
000111   3901     xorai   0x1              	XORAI	0x01
000112   e587     jbset   0x187, 0x2       	JBSET	PFLAG,2
000113   a1f9     goto    0x1f9            	GOTO	_00679_DS_
                                           ;	.line	878; "MC32P7351.c"	{
000114   f461     jbclr   0x61, 0x2        	JBCLR	_KEY_FLAG,2
000115   a11a     goto    0x11a            	GOTO	_00632_DS_
000116   f45f     jbclr   0x5f, 0x2        	JBCLR	_flag1,2
000117   a11a     goto    0x11a            	GOTO	_00632_DS_
000118   f65f     jbclr   0x5f, 0x3        	JBCLR	_flag1,3
000119   a1f3     goto    0x1f3            	GOTO	_00633_DS_
                                           _00632_DS_
                                           ;	.line	880; "MC32P7351.c"	WAIT_ADC_CHANGE=0;
00011a   d3b0     bclr    0x1b0, 0x1       	BCLR	_ADCR0bits,1
                                           ;	.line	881; "MC32P7351.c"	GET_ADC_ERROR=0;
00011b   7655     clrr    0x55             	CLRR	_WAIT_ADC_CHANGE
00011c   7656     clrr    0x56             	CLRR	(_WAIT_ADC_CHANGE + 1)
                                           ;	.line	882; "MC32P7351.c"	GET_ADC_OK=1;
00011d   d661     bclr    0x61, 0x3        	BCLR	_KEY_FLAG,3
                                           ;	.line	883; "MC32P7351.c"	g_temp_value=0;
00011e   c861     bset    0x61, 0x4        	BSET	_KEY_FLAG,4
                                           ;	.line	884; "MC32P7351.c"	while(!ADEOC)
00011f   7659     clrr    0x59             	CLRR	_g_temp_value
000120   765a     clrr    0x5a             	CLRR	(_g_temp_value + 1)
                                           _00599_DS_
                                           ;	.line	886; "MC32P7351.c"	{
000121   f3b0     jbclr   0x1b0, 0x1       	JBCLR	_ADCR0bits,1
000122   a133     goto    0x133            	GOTO	_00601_DS_
                                           ;	.line	888; "MC32P7351.c"	if(WAIT_ADC_CHANGE>1500)
000123   6655     incr    0x55             	INCR	_WAIT_ADC_CHANGE
000124   f587     jbclr   0x187, 0x2       	JBCLR	PFLAG,2
000125   6656     incr    0x56             	INCR	(_WAIT_ADC_CHANGE + 1)
                                           ;;swapping arguments (AOP_TYPEs 1/3)
                                           ;;unsigned compare: left >= lit(0x5DD=1501), size=2
                                           ;	.line	889; "MC32P7351.c"	{
000126   3c05     movai   0x5              	MOVAI	0x05
000127   4856     rsubar  0x56             	RSUBAR	(_WAIT_ADC_CHANGE + 1)
000128   e587     jbset   0x187, 0x2       	JBSET	PFLAG,2
000129   a12c     goto    0x12c            	GOTO	_00836_DS_
00012a   3cdd     movai   0xdd             	MOVAI	0xdd
00012b   4855     rsubar  0x55             	RSUBAR	_WAIT_ADC_CHANGE
                                           _00836_DS_
00012c   e187     jbset   0x187, 0         	JBSET	PFLAG,0
00012d   a121     goto    0x121            	GOTO	_00599_DS_
                                           ;;genSkipc:3291: created from rifx:013B5EFC
                                           ;	.line	891; "MC32P7351.c"	GET_ADC_ERROR=1;
00012e   7655     clrr    0x55             	CLRR	_WAIT_ADC_CHANGE
00012f   7656     clrr    0x56             	CLRR	(_WAIT_ADC_CHANGE + 1)
                                           ;	.line	892; "MC32P7351.c"	GET_ADC_OK=0;
000130   c661     bset    0x61, 0x3        	BSET	_KEY_FLAG,3
                                           ;	.line	893; "MC32P7351.c"	return;
000131   d861     bclr    0x61, 0x4        	BCLR	_KEY_FLAG,4
                                           ;	.line	894; "MC32P7351.c"	}
000132   a2be     goto    0x2be            	GOTO	_00686_DS_
                                           _00601_DS_
                                           ;	.line	898; "MC32P7351.c"	{
000133   e861     jbset   0x61, 0x4        	JBSET	_KEY_FLAG,4
000134   a1ed     goto    0x1ed            	GOTO	_00630_DS_
                                           ;	.line	900; "MC32P7351.c"	g_temp_value = ADRH;
000135   d861     bclr    0x61, 0x4        	BCLR	_KEY_FLAG,4
                                           ;	.line	901; "MC32P7351.c"	g_temp_value = g_temp_value << 4 | (ADRL & 0x0f);
000136   59b4     movar   0x1b4            	MOVAR	_ADRH
000137   5659     movra   0x59             	MOVRA	_g_temp_value
000138   765a     clrr    0x5a             	CLRR	(_g_temp_value + 1)
                                           ;	.line	902; "MC32P7351.c"	W_OVER_ALL1+=g_temp_value;
000139   445a     swapar  0x5a             	SWAPAR	(_g_temp_value + 1)
00013a   3ef0     andai   0xf0             	ANDAI	0xf0
00013b   560f     movra   0xf              	MOVRA	r0x1042
00013c   4459     swapar  0x59             	SWAPAR	_g_temp_value
00013d   560e     movra   0xe              	MOVRA	r0x1043
00013e   3e0f     andai   0xf              	ANDAI	0x0f
00013f   5e0f     orra    0xf              	ORRA	r0x1042
000140   420e     xorra   0xe              	XORRA	r0x1043
000141   59b5     movar   0x1b5            	MOVAR	_ADRL
000142   5610     movra   0x10             	MOVRA	r0x1044
000143   7611     clrr    0x11             	CLRR	r0x1045
000144   3c0f     movai   0xf              	MOVAI	0x0f
000145   7a10     andra   0x10             	ANDRA	r0x1044
000146   7611     clrr    0x11             	CLRR	r0x1045
                                           ;;107	MOVAR	r0x1044
000147   3c00     movai   0                	MOVAI	0x00
000148   5613     movra   0x13             	MOVRA	r0x1047
                                           ;;106	MOVAR	r0x1046
000149   5810     movar   0x10             	MOVAR	r0x1044
00014a   5612     movra   0x12             	MOVRA	r0x1046
00014b   5c0e     orar    0xe              	ORAR	r0x1043
00014c   5659     movra   0x59             	MOVRA	_g_temp_value
00014d   5813     movar   0x13             	MOVAR	r0x1047
00014e   5c0f     orar    0xf              	ORAR	r0x1042
00014f   565a     movra   0x5a             	MOVRA	(_g_temp_value + 1)
                                           ;	.line	904; "MC32P7351.c"	R_AD_CNT1++;
000150   5859     movar   0x59             	MOVAR	_g_temp_value
000151   7e4f     addra   0x4f             	ADDRA	_W_OVER_ALL1
000152   585a     movar   0x5a             	MOVAR	(_g_temp_value + 1)
000153   f187     jbclr   0x187, 0         	JBCLR	PFLAG,0
000154   605a     jzar    0x5a             	JZAR	(_g_temp_value + 1)
000155   7e50     addra   0x50             	ADDRA	(_W_OVER_ALL1 + 1)
                                           ;	.line	905; "MC32P7351.c"	if(R_AD_CNT1>7)
000156   6671     incr    0x71             	INCR	_R_AD_CNT1
                                           ;;swapping arguments (AOP_TYPEs 1/3)
                                           ;;unsigned compare: left >= lit(0x8=8), size=1
                                           ;	.line	906; "MC32P7351.c"	{
000157   3c08     movai   0x8              	MOVAI	0x08
000158   4871     rsubar  0x71             	RSUBAR	_R_AD_CNT1
000159   e187     jbset   0x187, 0         	JBSET	PFLAG,0
00015a   a2b8     goto    0x2b8            	GOTO	_00683_DS_
                                           ;;genSkipc:3291: created from rifx:013B5EFC
                                           ;	.line	908; "MC32P7351.c"	W_OVER_ALL1 = W_OVER_ALL1>>3;
00015b   7671     clrr    0x71             	CLRR	_R_AD_CNT1
                                           ;;shiftRight_Left2ResultLit:5339: shCount=1, size=2, sign=0, same=1, offr=0
                                           ;	.line	909; "MC32P7351.c"	/*
00015c   d187     bclr    0x187, 0         	BCLR	PFLAG,0
00015d   4e50     rrr     0x50             	RRR	(_W_OVER_ALL1 + 1)
00015e   4e4f     rrr     0x4f             	RRR	_W_OVER_ALL1
                                           ;;shiftRight_Left2ResultLit:5339: shCount=1, size=2, sign=0, same=1, offr=0
00015f   d187     bclr    0x187, 0         	BCLR	PFLAG,0
000160   4e50     rrr     0x50             	RRR	(_W_OVER_ALL1 + 1)
000161   4e4f     rrr     0x4f             	RRR	_W_OVER_ALL1
                                           ;;shiftRight_Left2ResultLit:5339: shCount=1, size=2, sign=0, same=1, offr=0
000162   d187     bclr    0x187, 0         	BCLR	PFLAG,0
000163   4e50     rrr     0x50             	RRR	(_W_OVER_ALL1 + 1)
000164   4e4f     rrr     0x4f             	RRR	_W_OVER_ALL1
                                           ;	.line	915; "MC32P7351.c"	{
000165   f65f     jbclr   0x5f, 0x3        	JBCLR	_flag1,3
000166   a19c     goto    0x19c            	GOTO	_00625_DS_
                                           ;	.line	917; "MC32P7351.c"	if(BAT_CNT5>19)
000167   6678     incr    0x78             	INCR	_BAT_CNT5
                                           ;;swapping arguments (AOP_TYPEs 1/3)
                                           ;;unsigned compare: left >= lit(0x14=20), size=1
                                           ;	.line	918; "MC32P7351.c"	{
000168   3c14     movai   0x14             	MOVAI	0x14
000169   4878     rsubar  0x78             	RSUBAR	_BAT_CNT5
00016a   e187     jbset   0x187, 0         	JBSET	PFLAG,0
00016b   a1ea     goto    0x1ea            	GOTO	_00626_DS_
                                           ;;genSkipc:3291: created from rifx:013B5EFC
                                           ;	.line	920; "MC32P7351.c"	if(W_OVER_ALL1<1587)		//3.1v
00016c   7678     clrr    0x78             	CLRR	_BAT_CNT5
                                           ;;unsigned compare: left < lit(0x633=1587), size=2
                                           ;	.line	921; "MC32P7351.c"	{
00016d   3c06     movai   0x6              	MOVAI	0x06
00016e   4850     rsubar  0x50             	RSUBAR	(_W_OVER_ALL1 + 1)
00016f   e587     jbset   0x187, 0x2       	JBSET	PFLAG,2
000170   a173     goto    0x173            	GOTO	_00839_DS_
000171   3c33     movai   0x33             	MOVAI	0x33
000172   484f     rsubar  0x4f             	RSUBAR	_W_OVER_ALL1
                                           _00839_DS_
000173   f187     jbclr   0x187, 0         	JBCLR	PFLAG,0
000174   a179     goto    0x179            	GOTO	_00606_DS_
                                           ;;genSkipc:3291: created from rifx:013B5EFC
                                           ;	.line	923; "MC32P7351.c"	B_LOW_POWER_F=1;
000175   7647     clrr    0x47             	CLRR	_BUFF_BAT_VALUE
000176   7648     clrr    0x48             	CLRR	(_BUFF_BAT_VALUE + 1)
                                           ;	.line	924; "MC32P7351.c"	}
000177   c060     bset    0x60, 0          	BSET	_flag2,0
000178   a196     goto    0x196            	GOTO	_00607_DS_
                                           ;;swapping arguments (AOP_TYPEs 1/3)
                                           ;;unsigned compare: left >= lit(0x801=2049), size=2
                                           _00606_DS_
                                           ;	.line	926; "MC32P7351.c"	{
000179   3c08     movai   0x8              	MOVAI	0x08
00017a   4850     rsubar  0x50             	RSUBAR	(_W_OVER_ALL1 + 1)
00017b   e587     jbset   0x187, 0x2       	JBSET	PFLAG,2
00017c   a17f     goto    0x17f            	GOTO	_00840_DS_
00017d   3c01     movai   0x1              	MOVAI	0x01
00017e   484f     rsubar  0x4f             	RSUBAR	_W_OVER_ALL1
                                           _00840_DS_
00017f   e187     jbset   0x187, 0         	JBSET	PFLAG,0
000180   a185     goto    0x185            	GOTO	_00603_DS_
                                           ;;genSkipc:3291: created from rifx:013B5EFC
                                           ;	.line	928; "MC32P7351.c"	}
000181   3c64     movai   0x64             	MOVAI	0x64
000182   5647     movra   0x47             	MOVRA	_BUFF_BAT_VALUE
000183   7648     clrr    0x48             	CLRR	(_BUFF_BAT_VALUE + 1)
000184   a196     goto    0x196            	GOTO	_00607_DS_
                                           _00603_DS_
                                           ;	.line	933; "MC32P7351.c"	BUFF_BAT_VALUE=W_OVER_ALL1/5;
000185   3ccd     movai   0xcd             	MOVAI	0xcd
000186   7e4f     addra   0x4f             	ADDRA	_W_OVER_ALL1
000187   3cf9     movai   0xf9             	MOVAI	0xf9
000188   f187     jbclr   0x187, 0         	JBCLR	PFLAG,0
000189   3cfa     movai   0xfa             	MOVAI	0xfa
00018a   7e50     addra   0x50             	ADDRA	(_W_OVER_ALL1 + 1)
                                           ;	.line	934; "MC32P7351.c"	}
00018b   3c05     movai   0x5              	MOVAI	0x05
00018c   5604     movra   0x4              	MOVRA	STK02
00018d   3c00     movai   0                	MOVAI	0x00
00018e   5605     movra   0x5              	MOVRA	STK01
00018f   584f     movar   0x4f             	MOVAR	_W_OVER_ALL1
000190   5606     movra   0x6              	MOVRA	STK00
000191   5850     movar   0x50             	MOVAR	(_W_OVER_ALL1 + 1)
000192   873b     call    0x73b            	CALL	__divuint
000193   5648     movra   0x48             	MOVRA	(_BUFF_BAT_VALUE + 1)
000194   5806     movar   0x6              	MOVAR	STK00
000195   5647     movra   0x47             	MOVRA	_BUFF_BAT_VALUE
                                           _00607_DS_
                                           ;	.line	937; "MC32P7351.c"	B_UP_POWER_CK=1;
000196   5847     movar   0x47             	MOVAR	_BUFF_BAT_VALUE
000197   5649     movra   0x49             	MOVRA	_SET_BAT_VALUE
000198   5848     movar   0x48             	MOVAR	(_BUFF_BAT_VALUE + 1)
000199   564a     movra   0x4a             	MOVRA	(_SET_BAT_VALUE + 1)
                                           ;	.line	938; "MC32P7351.c"	//BAT_CHECK_F=0;
00019a   c65f     bset    0x5f, 0x3        	BSET	_flag1,3
00019b   a1ea     goto    0x1ea            	GOTO	_00626_DS_
                                           _00625_DS_
                                           ;	.line	943; "MC32P7351.c"	{
00019c   e45f     jbset   0x5f, 0x2        	JBSET	_flag1,2
00019d   a1c1     goto    0x1c1            	GOTO	_00622_DS_
                                           ;	.line	945; "MC32P7351.c"	{
00019e   ec5f     jbset   0x5f, 0x6        	JBSET	_flag1,6
00019f   a1a4     goto    0x1a4            	GOTO	_00613_DS_
                                           ;	.line	947; "MC32P7351.c"	}
0001a0   3c64     movai   0x64             	MOVAI	0x64
0001a1   5647     movra   0x47             	MOVRA	_BUFF_BAT_VALUE
0001a2   7648     clrr    0x48             	CLRR	(_BUFF_BAT_VALUE + 1)
0001a3   a1ea     goto    0x1ea            	GOTO	_00626_DS_
                                           _00613_DS_
                                           ;	.line	951; "MC32P7351.c"	BUFF_BAT_VALUE=W_OVER_ALL1/5;
0001a4   3ccd     movai   0xcd             	MOVAI	0xcd
0001a5   7e4f     addra   0x4f             	ADDRA	_W_OVER_ALL1
0001a6   3cf9     movai   0xf9             	MOVAI	0xf9
0001a7   f187     jbclr   0x187, 0         	JBCLR	PFLAG,0
0001a8   3cfa     movai   0xfa             	MOVAI	0xfa
0001a9   7e50     addra   0x50             	ADDRA	(_W_OVER_ALL1 + 1)
                                           ;	.line	952; "MC32P7351.c"	if(BUFF_BAT_VALUE>99)
0001aa   3c05     movai   0x5              	MOVAI	0x05
0001ab   5604     movra   0x4              	MOVRA	STK02
0001ac   3c00     movai   0                	MOVAI	0x00
0001ad   5605     movra   0x5              	MOVRA	STK01
0001ae   584f     movar   0x4f             	MOVAR	_W_OVER_ALL1
0001af   5606     movra   0x6              	MOVRA	STK00
0001b0   5850     movar   0x50             	MOVAR	(_W_OVER_ALL1 + 1)
0001b1   873b     call    0x73b            	CALL	__divuint
0001b2   5648     movra   0x48             	MOVRA	(_BUFF_BAT_VALUE + 1)
0001b3   5806     movar   0x6              	MOVAR	STK00
0001b4   5647     movra   0x47             	MOVRA	_BUFF_BAT_VALUE
                                           ;;swapping arguments (AOP_TYPEs 1/3)
                                           ;;unsigned compare: left >= lit(0x64=100), size=2
                                           ;	.line	953; "MC32P7351.c"	{
0001b5   3c00     movai   0                	MOVAI	0x00
0001b6   4848     rsubar  0x48             	RSUBAR	(_BUFF_BAT_VALUE + 1)
0001b7   e587     jbset   0x187, 0x2       	JBSET	PFLAG,2
0001b8   a1bb     goto    0x1bb            	GOTO	_00841_DS_
0001b9   3c64     movai   0x64             	MOVAI	0x64
0001ba   4847     rsubar  0x47             	RSUBAR	_BUFF_BAT_VALUE
                                           _00841_DS_
0001bb   e187     jbset   0x187, 0         	JBSET	PFLAG,0
0001bc   a1ea     goto    0x1ea            	GOTO	_00626_DS_
                                           ;;genSkipc:3291: created from rifx:013B5EFC
                                           ;	.line	955; "MC32P7351.c"	}
0001bd   3c63     movai   0x63             	MOVAI	0x63
0001be   5647     movra   0x47             	MOVRA	_BUFF_BAT_VALUE
0001bf   7648     clrr    0x48             	CLRR	(_BUFF_BAT_VALUE + 1)
0001c0   a1ea     goto    0x1ea            	GOTO	_00626_DS_
                                           ;;unsigned compare: left < lit(0x633=1587), size=2
                                           _00622_DS_
                                           ;	.line	962; "MC32P7351.c"	{
0001c1   3c06     movai   0x6              	MOVAI	0x06
0001c2   4850     rsubar  0x50             	RSUBAR	(_W_OVER_ALL1 + 1)
0001c3   e587     jbset   0x187, 0x2       	JBSET	PFLAG,2
0001c4   a1c7     goto    0x1c7            	GOTO	_00842_DS_
0001c5   3c33     movai   0x33             	MOVAI	0x33
0001c6   484f     rsubar  0x4f             	RSUBAR	_W_OVER_ALL1
                                           _00842_DS_
0001c7   f187     jbclr   0x187, 0         	JBCLR	PFLAG,0
0001c8   a1cd     goto    0x1cd            	GOTO	_00619_DS_
                                           ;;genSkipc:3291: created from rifx:013B5EFC
                                           ;	.line	964; "MC32P7351.c"	B_LOW_POWER_F=1;
0001c9   7647     clrr    0x47             	CLRR	_BUFF_BAT_VALUE
0001ca   7648     clrr    0x48             	CLRR	(_BUFF_BAT_VALUE + 1)
                                           ;	.line	965; "MC32P7351.c"	}
0001cb   c060     bset    0x60, 0          	BSET	_flag2,0
0001cc   a1ea     goto    0x1ea            	GOTO	_00626_DS_
                                           ;;swapping arguments (AOP_TYPEs 1/3)
                                           ;;unsigned compare: left >= lit(0x801=2049), size=2
                                           _00619_DS_
                                           ;	.line	967; "MC32P7351.c"	{
0001cd   3c08     movai   0x8              	MOVAI	0x08
0001ce   4850     rsubar  0x50             	RSUBAR	(_W_OVER_ALL1 + 1)
0001cf   e587     jbset   0x187, 0x2       	JBSET	PFLAG,2
0001d0   a1d3     goto    0x1d3            	GOTO	_00843_DS_
0001d1   3c01     movai   0x1              	MOVAI	0x01
0001d2   484f     rsubar  0x4f             	RSUBAR	_W_OVER_ALL1
                                           _00843_DS_
0001d3   e187     jbset   0x187, 0         	JBSET	PFLAG,0
0001d4   a1d9     goto    0x1d9            	GOTO	_00616_DS_
                                           ;;genSkipc:3291: created from rifx:013B5EFC
                                           ;	.line	969; "MC32P7351.c"	}
0001d5   3c64     movai   0x64             	MOVAI	0x64
0001d6   5647     movra   0x47             	MOVRA	_BUFF_BAT_VALUE
0001d7   7648     clrr    0x48             	CLRR	(_BUFF_BAT_VALUE + 1)
0001d8   a1ea     goto    0x1ea            	GOTO	_00626_DS_
                                           _00616_DS_
                                           ;	.line	973; "MC32P7351.c"	BUFF_BAT_VALUE=W_OVER_ALL1/5;
0001d9   3ccd     movai   0xcd             	MOVAI	0xcd
0001da   7e4f     addra   0x4f             	ADDRA	_W_OVER_ALL1
0001db   3cf9     movai   0xf9             	MOVAI	0xf9
0001dc   f187     jbclr   0x187, 0         	JBCLR	PFLAG,0
0001dd   3cfa     movai   0xfa             	MOVAI	0xfa
0001de   7e50     addra   0x50             	ADDRA	(_W_OVER_ALL1 + 1)
                                           ;	.line	974; "MC32P7351.c"	}
0001df   3c05     movai   0x5              	MOVAI	0x05
0001e0   5604     movra   0x4              	MOVRA	STK02
0001e1   3c00     movai   0                	MOVAI	0x00
0001e2   5605     movra   0x5              	MOVRA	STK01
0001e3   584f     movar   0x4f             	MOVAR	_W_OVER_ALL1
0001e4   5606     movra   0x6              	MOVRA	STK00
0001e5   5850     movar   0x50             	MOVAR	(_W_OVER_ALL1 + 1)
0001e6   873b     call    0x73b            	CALL	__divuint
0001e7   5648     movra   0x48             	MOVRA	(_BUFF_BAT_VALUE + 1)
0001e8   5806     movar   0x6              	MOVAR	STK00
0001e9   5647     movra   0x47             	MOVRA	_BUFF_BAT_VALUE
                                           _00626_DS_
                                           ;	.line	979; "MC32P7351.c"	}
0001ea   764f     clrr    0x4f             	CLRR	_W_OVER_ALL1
0001eb   7650     clrr    0x50             	CLRR	(_W_OVER_ALL1 + 1)
0001ec   a2b8     goto    0x2b8            	GOTO	_00683_DS_
                                           _00630_DS_
                                           ;	.line	984; "MC32P7351.c"	R_AD_CNT1=0;
0001ed   764f     clrr    0x4f             	CLRR	_W_OVER_ALL1
0001ee   7650     clrr    0x50             	CLRR	(_W_OVER_ALL1 + 1)
                                           ;	.line	985; "MC32P7351.c"	g_temp_value=0;
0001ef   7671     clrr    0x71             	CLRR	_R_AD_CNT1
                                           ;	.line	986; "MC32P7351.c"	}
0001f0   7659     clrr    0x59             	CLRR	_g_temp_value
0001f1   765a     clrr    0x5a             	CLRR	(_g_temp_value + 1)
0001f2   a2b8     goto    0x2b8            	GOTO	_00683_DS_
                                           _00633_DS_
                                           ;	.line	991; "MC32P7351.c"	R_AD_CNT1=0;
0001f3   764f     clrr    0x4f             	CLRR	_W_OVER_ALL1
0001f4   7650     clrr    0x50             	CLRR	(_W_OVER_ALL1 + 1)
                                           ;	.line	992; "MC32P7351.c"	g_temp_value=0;
0001f5   7671     clrr    0x71             	CLRR	_R_AD_CNT1
                                           ;	.line	993; "MC32P7351.c"	}
0001f6   7659     clrr    0x59             	CLRR	_g_temp_value
0001f7   765a     clrr    0x5a             	CLRR	(_g_temp_value + 1)
0001f8   a2b8     goto    0x2b8            	GOTO	_00683_DS_
                                           _00679_DS_
                                           ;	.line	997; "MC32P7351.c"	{
0001f9   5879     movar   0x79             	MOVAR	_AD_MODE
0001fa   3902     xorai   0x2              	XORAI	0x02
0001fb   e587     jbset   0x187, 0x2       	JBSET	PFLAG,2
0001fc   a204     goto    0x204            	GOTO	_00676_DS_
                                           ;	.line	999; "MC32P7351.c"	ADCR1 = 0x80;					   //322V
0001fd   3c3b     movai   0x3b             	MOVAI	0x3b
0001fe   57b0     movra   0x1b0            	MOVRA	_ADCR0
                                           ;	.line	1000; "MC32P7351.c"	ADCR2 = 0xff;					   //15ADCLK
0001ff   3c80     movai   0x80             	MOVAI	0x80
000200   57b1     movra   0x1b1            	MOVRA	_ADCR1
                                           ;	.line	1001; "MC32P7351.c"	}
000201   3cff     movai   0xff             	MOVAI	0xff
000202   57b2     movra   0x1b2            	MOVRA	_ADCR2
000203   a2b8     goto    0x2b8            	GOTO	_00683_DS_
                                           _00676_DS_
                                           ;	.line	1003; "MC32P7351.c"	{
000204   5879     movar   0x79             	MOVAR	_AD_MODE
000205   3903     xorai   0x3              	XORAI	0x03
000206   e587     jbset   0x187, 0x2       	JBSET	PFLAG,2
000207   a2b8     goto    0x2b8            	GOTO	_00683_DS_
                                           ;	.line	1005; "MC32P7351.c"	{
000208   f461     jbclr   0x61, 0x2        	JBCLR	_KEY_FLAG,2
000209   a20c     goto    0x20c            	GOTO	_00669_DS_
00020a   e45f     jbset   0x5f, 0x2        	JBSET	_flag1,2
00020b   a2b3     goto    0x2b3            	GOTO	_00670_DS_
                                           _00669_DS_
                                           ;	.line	1007; "MC32P7351.c"	WAIT_ADC_CHANGE1=0;
00020c   d3b0     bclr    0x1b0, 0x1       	BCLR	_ADCR0bits,1
                                           ;	.line	1008; "MC32P7351.c"	GET_ADC_ERROR=0;
00020d   7657     clrr    0x57             	CLRR	_WAIT_ADC_CHANGE1
00020e   7658     clrr    0x58             	CLRR	(_WAIT_ADC_CHANGE1 + 1)
                                           ;	.line	1009; "MC32P7351.c"	GET_ADC_OK=1;
00020f   d661     bclr    0x61, 0x3        	BCLR	_KEY_FLAG,3
                                           ;	.line	1010; "MC32P7351.c"	g_temp_value1=0;
000210   c861     bset    0x61, 0x4        	BSET	_KEY_FLAG,4
                                           ;	.line	1011; "MC32P7351.c"	while(!ADEOC)
000211   765b     clrr    0x5b             	CLRR	_g_temp_value1
000212   765c     clrr    0x5c             	CLRR	(_g_temp_value1 + 1)
                                           _00639_DS_
                                           ;	.line	1013; "MC32P7351.c"	{
000213   f3b0     jbclr   0x1b0, 0x1       	JBCLR	_ADCR0bits,1
000214   a225     goto    0x225            	GOTO	_00641_DS_
                                           ;	.line	1015; "MC32P7351.c"	if(WAIT_ADC_CHANGE1>1500)
000215   6657     incr    0x57             	INCR	_WAIT_ADC_CHANGE1
000216   f587     jbclr   0x187, 0x2       	JBCLR	PFLAG,2
000217   6658     incr    0x58             	INCR	(_WAIT_ADC_CHANGE1 + 1)
                                           ;;swapping arguments (AOP_TYPEs 1/3)
                                           ;;unsigned compare: left >= lit(0x5DD=1501), size=2
                                           ;	.line	1016; "MC32P7351.c"	{
000218   3c05     movai   0x5              	MOVAI	0x05
000219   4858     rsubar  0x58             	RSUBAR	(_WAIT_ADC_CHANGE1 + 1)
00021a   e587     jbset   0x187, 0x2       	JBSET	PFLAG,2
00021b   a21e     goto    0x21e            	GOTO	_00844_DS_
00021c   3cdd     movai   0xdd             	MOVAI	0xdd
00021d   4857     rsubar  0x57             	RSUBAR	_WAIT_ADC_CHANGE1
                                           _00844_DS_
00021e   e187     jbset   0x187, 0         	JBSET	PFLAG,0
00021f   a213     goto    0x213            	GOTO	_00639_DS_
                                           ;;genSkipc:3291: created from rifx:013B5EFC
                                           ;	.line	1018; "MC32P7351.c"	GET_ADC_ERROR=1;
000220   7657     clrr    0x57             	CLRR	_WAIT_ADC_CHANGE1
000221   7658     clrr    0x58             	CLRR	(_WAIT_ADC_CHANGE1 + 1)
                                           ;	.line	1019; "MC32P7351.c"	GET_ADC_OK=0;
000222   c661     bset    0x61, 0x3        	BSET	_KEY_FLAG,3
                                           ;	.line	1020; "MC32P7351.c"	return;
000223   d861     bclr    0x61, 0x4        	BCLR	_KEY_FLAG,4
                                           ;	.line	1021; "MC32P7351.c"	}
000224   a2be     goto    0x2be            	GOTO	_00686_DS_
                                           _00641_DS_
                                           ;	.line	1025; "MC32P7351.c"	{
000225   e861     jbset   0x61, 0x4        	JBSET	_KEY_FLAG,4
000226   a2ad     goto    0x2ad            	GOTO	_00667_DS_
                                           ;	.line	1027; "MC32P7351.c"	g_temp_value1 = ADRH;
000227   d861     bclr    0x61, 0x4        	BCLR	_KEY_FLAG,4
                                           ;	.line	1028; "MC32P7351.c"	g_temp_value1 = g_temp_value1 << 4 | (ADRL & 0x0f);
000228   59b4     movar   0x1b4            	MOVAR	_ADRH
000229   565b     movra   0x5b             	MOVRA	_g_temp_value1
00022a   765c     clrr    0x5c             	CLRR	(_g_temp_value1 + 1)
                                           ;	.line	1029; "MC32P7351.c"	W_OVER_ALL2+=g_temp_value1;
00022b   445c     swapar  0x5c             	SWAPAR	(_g_temp_value1 + 1)
00022c   3ef0     andai   0xf0             	ANDAI	0xf0
00022d   560f     movra   0xf              	MOVRA	r0x1042
00022e   445b     swapar  0x5b             	SWAPAR	_g_temp_value1
00022f   560e     movra   0xe              	MOVRA	r0x1043
000230   3e0f     andai   0xf              	ANDAI	0x0f
000231   5e0f     orra    0xf              	ORRA	r0x1042
000232   420e     xorra   0xe              	XORRA	r0x1043
000233   59b5     movar   0x1b5            	MOVAR	_ADRL
000234   5610     movra   0x10             	MOVRA	r0x1044
000235   7611     clrr    0x11             	CLRR	r0x1045
000236   3c0f     movai   0xf              	MOVAI	0x0f
000237   7a10     andra   0x10             	ANDRA	r0x1044
000238   7611     clrr    0x11             	CLRR	r0x1045
                                           ;;103	MOVAR	r0x1044
000239   3c00     movai   0                	MOVAI	0x00
00023a   5613     movra   0x13             	MOVRA	r0x1047
                                           ;;102	MOVAR	r0x1046
00023b   5810     movar   0x10             	MOVAR	r0x1044
00023c   5612     movra   0x12             	MOVRA	r0x1046
00023d   5c0e     orar    0xe              	ORAR	r0x1043
00023e   565b     movra   0x5b             	MOVRA	_g_temp_value1
00023f   5813     movar   0x13             	MOVAR	r0x1047
000240   5c0f     orar    0xf              	ORAR	r0x1042
000241   565c     movra   0x5c             	MOVRA	(_g_temp_value1 + 1)
                                           ;	.line	1031; "MC32P7351.c"	R_AD_CNT2++;
000242   585b     movar   0x5b             	MOVAR	_g_temp_value1
000243   7e51     addra   0x51             	ADDRA	_W_OVER_ALL2
000244   585c     movar   0x5c             	MOVAR	(_g_temp_value1 + 1)
000245   f187     jbclr   0x187, 0         	JBCLR	PFLAG,0
000246   605c     jzar    0x5c             	JZAR	(_g_temp_value1 + 1)
000247   7e52     addra   0x52             	ADDRA	(_W_OVER_ALL2 + 1)
                                           ;	.line	1032; "MC32P7351.c"	if(R_AD_CNT2>7)
000248   667c     incr    0x7c             	INCR	_R_AD_CNT2
                                           ;;swapping arguments (AOP_TYPEs 1/3)
                                           ;;unsigned compare: left >= lit(0x8=8), size=1
                                           ;	.line	1033; "MC32P7351.c"	{
000249   3c08     movai   0x8              	MOVAI	0x08
00024a   487c     rsubar  0x7c             	RSUBAR	_R_AD_CNT2
00024b   e187     jbset   0x187, 0         	JBSET	PFLAG,0
00024c   a2b8     goto    0x2b8            	GOTO	_00683_DS_
                                           ;;genSkipc:3291: created from rifx:013B5EFC
                                           ;	.line	1035; "MC32P7351.c"	W_OVER_ALL2 = W_OVER_ALL2>>3;
00024d   767c     clrr    0x7c             	CLRR	_R_AD_CNT2
                                           ;;shiftRight_Left2ResultLit:5339: shCount=1, size=2, sign=0, same=1, offr=0
                                           ;	.line	1036; "MC32P7351.c"	/*
00024e   d187     bclr    0x187, 0         	BCLR	PFLAG,0
00024f   4e52     rrr     0x52             	RRR	(_W_OVER_ALL2 + 1)
000250   4e51     rrr     0x51             	RRR	_W_OVER_ALL2
                                           ;;shiftRight_Left2ResultLit:5339: shCount=1, size=2, sign=0, same=1, offr=0
000251   d187     bclr    0x187, 0         	BCLR	PFLAG,0
000252   4e52     rrr     0x52             	RRR	(_W_OVER_ALL2 + 1)
000253   4e51     rrr     0x51             	RRR	_W_OVER_ALL2
                                           ;;shiftRight_Left2ResultLit:5339: shCount=1, size=2, sign=0, same=1, offr=0
000254   d187     bclr    0x187, 0         	BCLR	PFLAG,0
000255   4e52     rrr     0x52             	RRR	(_W_OVER_ALL2 + 1)
000256   4e51     rrr     0x51             	RRR	_W_OVER_ALL2
                                           ;;unsigned compare: left < lit(0x800=2048), size=2
                                           ;	.line	1041; "MC32P7351.c"	{
000257   3c08     movai   0x8              	MOVAI	0x08
000258   4852     rsubar  0x52             	RSUBAR	(_W_OVER_ALL2 + 1)
000259   e587     jbset   0x187, 0x2       	JBSET	PFLAG,2
00025a   a25d     goto    0x25d            	GOTO	_00846_DS_
00025b   3c00     movai   0                	MOVAI	0x00
00025c   4851     rsubar  0x51             	RSUBAR	_W_OVER_ALL2
                                           _00846_DS_
00025d   f187     jbclr   0x187, 0         	JBCLR	PFLAG,0
00025e   a26f     goto    0x26f            	GOTO	_00647_DS_
                                           ;;genSkipc:3291: created from rifx:013B5EFC
                                           ;	.line	1043; "MC32P7351.c"	IN_LOAD_CNT1++;
00025f   764d     clrr    0x4d             	CLRR	_IN_LOAD_CNT2
000260   764e     clrr    0x4e             	CLRR	(_IN_LOAD_CNT2 + 1)
                                           ;	.line	1044; "MC32P7351.c"	if(IN_LOAD_CNT1>5)
000261   664b     incr    0x4b             	INCR	_IN_LOAD_CNT1
000262   f587     jbclr   0x187, 0x2       	JBCLR	PFLAG,2
000263   664c     incr    0x4c             	INCR	(_IN_LOAD_CNT1 + 1)
                                           ;;swapping arguments (AOP_TYPEs 1/3)
                                           ;;unsigned compare: left >= lit(0x6=6), size=2
                                           ;	.line	1045; "MC32P7351.c"	{
000264   3c00     movai   0                	MOVAI	0x00
000265   484c     rsubar  0x4c             	RSUBAR	(_IN_LOAD_CNT1 + 1)
000266   e587     jbset   0x187, 0x2       	JBSET	PFLAG,2
000267   a26a     goto    0x26a            	GOTO	_00847_DS_
000268   3c06     movai   0x6              	MOVAI	0x06
000269   484b     rsubar  0x4b             	RSUBAR	_IN_LOAD_CNT1
                                           _00847_DS_
00026a   e187     jbset   0x187, 0         	JBSET	PFLAG,0
00026b   a27f     goto    0x27f            	GOTO	_00648_DS_
                                           ;;genSkipc:3291: created from rifx:013B5EFC
                                           ;	.line	1047; "MC32P7351.c"	}
00026c   764b     clrr    0x4b             	CLRR	_IN_LOAD_CNT1
00026d   764c     clrr    0x4c             	CLRR	(_IN_LOAD_CNT1 + 1)
00026e   a27f     goto    0x27f            	GOTO	_00648_DS_
                                           _00647_DS_
                                           ;	.line	1052; "MC32P7351.c"	IN_LOAD_CNT2++;
00026f   764b     clrr    0x4b             	CLRR	_IN_LOAD_CNT1
000270   764c     clrr    0x4c             	CLRR	(_IN_LOAD_CNT1 + 1)
                                           ;	.line	1053; "MC32P7351.c"	if(IN_LOAD_CNT2>5)
000271   664d     incr    0x4d             	INCR	_IN_LOAD_CNT2
000272   f587     jbclr   0x187, 0x2       	JBCLR	PFLAG,2
000273   664e     incr    0x4e             	INCR	(_IN_LOAD_CNT2 + 1)
                                           ;;swapping arguments (AOP_TYPEs 1/3)
                                           ;;unsigned compare: left >= lit(0x6=6), size=2
                                           ;	.line	1054; "MC32P7351.c"	{
000274   3c00     movai   0                	MOVAI	0x00
000275   484e     rsubar  0x4e             	RSUBAR	(_IN_LOAD_CNT2 + 1)
000276   e587     jbset   0x187, 0x2       	JBSET	PFLAG,2
000277   a27a     goto    0x27a            	GOTO	_00848_DS_
000278   3c06     movai   0x6              	MOVAI	0x06
000279   484d     rsubar  0x4d             	RSUBAR	_IN_LOAD_CNT2
                                           _00848_DS_
00027a   e187     jbset   0x187, 0         	JBSET	PFLAG,0
00027b   a27f     goto    0x27f            	GOTO	_00648_DS_
                                           ;;genSkipc:3291: created from rifx:013B5EFC
                                           ;	.line	1056; "MC32P7351.c"	WORK_ON=0;
00027c   764d     clrr    0x4d             	CLRR	_IN_LOAD_CNT2
00027d   764e     clrr    0x4e             	CLRR	(_IN_LOAD_CNT2 + 1)
                                           ;	.line	1057; "MC32P7351.c"	}
00027e   d461     bclr    0x61, 0x2        	BCLR	_KEY_FLAG,2
                                           _00648_DS_
                                           ;	.line	1061; "MC32P7351.c"	{
00027f   e461     jbset   0x61, 0x2        	JBSET	_KEY_FLAG,2
000280   a2aa     goto    0x2aa            	GOTO	_00663_DS_
                                           ;	.line	1063; "MC32P7351.c"	{
000281   5854     movar   0x54             	MOVAR	(_BUFF_OVER_ALL2 + 1)
000282   4852     rsubar  0x52             	RSUBAR	(_W_OVER_ALL2 + 1)
000283   e587     jbset   0x187, 0x2       	JBSET	PFLAG,2
000284   a287     goto    0x287            	GOTO	_00849_DS_
000285   5853     movar   0x53             	MOVAR	_BUFF_OVER_ALL2
000286   4851     rsubar  0x51             	RSUBAR	_W_OVER_ALL2
                                           _00849_DS_
000287   f187     jbclr   0x187, 0         	JBCLR	PFLAG,0
000288   a296     goto    0x296            	GOTO	_00660_DS_
                                           ;;genSkipc:3291: created from rifx:013B5EFC
                                           ;	.line	1065; "MC32P7351.c"	MOTO_CNT1++;
000289   767b     clrr    0x7b             	CLRR	_MOTO_CNT2
                                           ;	.line	1066; "MC32P7351.c"	if(MOTO_CNT1>BUFF_M_CNT)
00028a   667a     incr    0x7a             	INCR	_MOTO_CNT1
                                           ;	.line	1067; "MC32P7351.c"	{
00028b   587a     movar   0x7a             	MOVAR	_MOTO_CNT1
00028c   487d     rsubar  0x7d             	RSUBAR	_BUFF_M_CNT
00028d   f187     jbclr   0x187, 0         	JBCLR	PFLAG,0
00028e   a2aa     goto    0x2aa            	GOTO	_00663_DS_
                                           ;;genSkipc:3291: created from rifx:013B5EFC
                                           ;	.line	1069; "MC32P7351.c"	if(BUFF_MOTO<105)
00028f   767a     clrr    0x7a             	CLRR	_MOTO_CNT1
                                           ;;unsigned compare: left < lit(0x69=105), size=1
                                           ;	.line	1070; "MC32P7351.c"	{
000290   3c69     movai   0x69             	MOVAI	0x69
000291   4869     rsubar  0x69             	RSUBAR	_BUFF_MOTO
000292   f187     jbclr   0x187, 0         	JBCLR	PFLAG,0
000293   a2aa     goto    0x2aa            	GOTO	_00663_DS_
                                           ;;genSkipc:3291: created from rifx:013B5EFC
                                           ;	.line	1072; "MC32P7351.c"	}
000294   6669     incr    0x69             	INCR	_BUFF_MOTO
000295   a2aa     goto    0x2aa            	GOTO	_00663_DS_
                                           _00660_DS_
                                           ;	.line	1076; "MC32P7351.c"	{
000296   5852     movar   0x52             	MOVAR	(_W_OVER_ALL2 + 1)
000297   4854     rsubar  0x54             	RSUBAR	(_BUFF_OVER_ALL2 + 1)
000298   e587     jbset   0x187, 0x2       	JBSET	PFLAG,2
000299   a29c     goto    0x29c            	GOTO	_00852_DS_
00029a   5851     movar   0x51             	MOVAR	_W_OVER_ALL2
00029b   4853     rsubar  0x53             	RSUBAR	_BUFF_OVER_ALL2
                                           _00852_DS_
00029c   f187     jbclr   0x187, 0         	JBCLR	PFLAG,0
00029d   a2aa     goto    0x2aa            	GOTO	_00663_DS_
                                           ;;genSkipc:3291: created from rifx:013B5EFC
                                           ;	.line	1078; "MC32P7351.c"	MOTO_CNT2++;
00029e   767a     clrr    0x7a             	CLRR	_MOTO_CNT1
                                           ;	.line	1079; "MC32P7351.c"	if(MOTO_CNT2>BUFF_M_CNT)
00029f   667b     incr    0x7b             	INCR	_MOTO_CNT2
                                           ;	.line	1080; "MC32P7351.c"	{
0002a0   587b     movar   0x7b             	MOVAR	_MOTO_CNT2
0002a1   487d     rsubar  0x7d             	RSUBAR	_BUFF_M_CNT
0002a2   f187     jbclr   0x187, 0         	JBCLR	PFLAG,0
0002a3   a2aa     goto    0x2aa            	GOTO	_00663_DS_
                                           ;;genSkipc:3291: created from rifx:013B5EFC
                                           ;	.line	1082; "MC32P7351.c"	if(BUFF_MOTO>0)
0002a4   767b     clrr    0x7b             	CLRR	_MOTO_CNT2
                                           ;	.line	1083; "MC32P7351.c"	{
0002a5   3c00     movai   0                	MOVAI	0x00
0002a6   5c69     orar    0x69             	ORAR	_BUFF_MOTO
0002a7   f587     jbclr   0x187, 0x2       	JBCLR	PFLAG,2
0002a8   a2aa     goto    0x2aa            	GOTO	_00663_DS_
                                           ;	.line	1085; "MC32P7351.c"	}
0002a9   6e69     decr    0x69             	DECR	_BUFF_MOTO
                                           _00663_DS_
                                           ;	.line	1091; "MC32P7351.c"	}
0002aa   7651     clrr    0x51             	CLRR	_W_OVER_ALL2
0002ab   7652     clrr    0x52             	CLRR	(_W_OVER_ALL2 + 1)
0002ac   a2b8     goto    0x2b8            	GOTO	_00683_DS_
                                           _00667_DS_
                                           ;	.line	1096; "MC32P7351.c"	R_AD_CNT2=0;
0002ad   7651     clrr    0x51             	CLRR	_W_OVER_ALL2
0002ae   7652     clrr    0x52             	CLRR	(_W_OVER_ALL2 + 1)
                                           ;	.line	1097; "MC32P7351.c"	g_temp_value1=0;
0002af   767c     clrr    0x7c             	CLRR	_R_AD_CNT2
                                           ;	.line	1098; "MC32P7351.c"	}
0002b0   765b     clrr    0x5b             	CLRR	_g_temp_value1
0002b1   765c     clrr    0x5c             	CLRR	(_g_temp_value1 + 1)
0002b2   a2b8     goto    0x2b8            	GOTO	_00683_DS_
                                           _00670_DS_
                                           ;	.line	1103; "MC32P7351.c"	R_AD_CNT2=0;
0002b3   7651     clrr    0x51             	CLRR	_W_OVER_ALL2
0002b4   7652     clrr    0x52             	CLRR	(_W_OVER_ALL2 + 1)
                                           ;	.line	1104; "MC32P7351.c"	g_temp_value1=0;
0002b5   767c     clrr    0x7c             	CLRR	_R_AD_CNT2
                                           ;	.line	1105; "MC32P7351.c"	}
0002b6   765b     clrr    0x5b             	CLRR	_g_temp_value1
0002b7   765c     clrr    0x5c             	CLRR	(_g_temp_value1 + 1)
                                           _00683_DS_
                                           ;	.line	1109; "MC32P7351.c"	if(AD_MODE>3)
0002b8   6679     incr    0x79             	INCR	_AD_MODE
                                           ;;swapping arguments (AOP_TYPEs 1/3)
                                           ;;unsigned compare: left >= lit(0x4=4), size=1
                                           ;	.line	1110; "MC32P7351.c"	{
0002b9   3c04     movai   0x4              	MOVAI	0x04
0002ba   4879     rsubar  0x79             	RSUBAR	_AD_MODE
0002bb   e187     jbset   0x187, 0         	JBSET	PFLAG,0
0002bc   a2be     goto    0x2be            	GOTO	_00686_DS_
                                           ;;genSkipc:3291: created from rifx:013B5EFC
                                           ;	.line	1112; "MC32P7351.c"	}
0002bd   7679     clrr    0x79             	CLRR	_AD_MODE
                                           _00686_DS_
                                           ;	.line	1114; "MC32P7351.c"	/************************************************
0002be   000c     return                   	RETURN	
                                           ; exit point of _SCAN_HOT_BAT_AD
                                           
                                           ;***
                                           ;  pBlock Stats: dbName = C
                                           ;***
                                           ;entry:  _SET_DL_DIS	;Function start
                                           ; 2 exit points
                                           ;has an exit
                                           ;functions called:
                                           ;   __modsint
                                           ;   _GET_SMG_VALUE
                                           ;   __modsint
                                           ;   _GET_SMG_VALUE
                                           ;   __divsint
                                           ;   _GET_SMG_VALUE
                                           ;   __modsint
                                           ;   _GET_SMG_VALUE
                                           ;   __modsint
                                           ;   _GET_SMG_VALUE
                                           ;   __divsint
                                           ;   _GET_SMG_VALUE
                                           ;7 compiler assigned registers:
                                           ;   r0x1049
                                           ;   r0x104A
                                           ;   r0x104B
                                           ;   STK02
                                           ;   STK01
                                           ;   STK00
                                           ;   r0x104C
                                           ;; Starting pCode block
                                           _SET_DL_DIS	;Function start
                                           ; 2 exit points
                                           ;	.line	836; "MC32P7351.c"	{
0002bf   560b     movra   0xb              	MOVRA	r0x1049
                                           ;;swapping arguments (AOP_TYPEs 1/2)
                                           ;;unsigned compare: left >= lit(0x64=100), size=1
                                           ;	.line	839; "MC32P7351.c"	{
0002c0   3c64     movai   0x64             	MOVAI	0x64
0002c1   480b     rsubar  0xb              	RSUBAR	r0x1049
0002c2   e187     jbset   0x187, 0         	JBSET	PFLAG,0
0002c3   a2cb     goto    0x2cb            	GOTO	_00590_DS_
                                           ;;genSkipc:3291: created from rifx:013B5EFC
                                           ;;gen.c:6570: size=0, offset=0, AOP_TYPE(res)=8
                                           ;	.line	841; "MC32P7351.c"	B_SMG_B.byte=0X3F;
0002c4   3c3f     movai   0x3f             	MOVAI	0x3f
0002c5   5662     movra   0x62             	MOVRA	(_B_SMG_S + 0)
                                           ;;gen.c:6570: size=0, offset=0, AOP_TYPE(res)=8
                                           ;	.line	842; "MC32P7351.c"	B_SMG_C.byte=0X03;
0002c6   3c3f     movai   0x3f             	MOVAI	0x3f
0002c7   5663     movra   0x63             	MOVRA	(_B_SMG_B + 0)
                                           ;;gen.c:6570: size=0, offset=0, AOP_TYPE(res)=8
                                           ;	.line	843; "MC32P7351.c"	}
0002c8   3c03     movai   0x3              	MOVAI	0x03
0002c9   5664     movra   0x64             	MOVRA	(_B_SMG_C + 0)
0002ca   a306     goto    0x306            	GOTO	_00592_DS_
                                           ;;unsigned compare: left < lit(0xA=10), size=1
                                           _00590_DS_
                                           ;	.line	846; "MC32P7351.c"	{
0002cb   3c0a     movai   0xa              	MOVAI	0x0a
0002cc   480b     rsubar  0xb              	RSUBAR	r0x1049
0002cd   f187     jbclr   0x187, 0         	JBCLR	PFLAG,0
0002ce   a2e4     goto    0x2e4            	GOTO	_00587_DS_
                                           ;;genSkipc:3291: created from rifx:013B5EFC
                                           ;;gen.c:6570: size=0, offset=0, AOP_TYPE(res)=8
                                           ;	.line	848; "MC32P7351.c"	B_SMG_C.byte=0X00;
0002cf   7662     clrr    0x62             	CLRR	(_B_SMG_S + 0)
                                           ;;gen.c:6570: size=0, offset=0, AOP_TYPE(res)=8
                                           ;	.line	849; "MC32P7351.c"	BUFF_SMG_DAT=DL%10;
0002d0   7664     clrr    0x64             	CLRR	(_B_SMG_C + 0)
                                           ;;109	MOVAR	r0x1049
                                           ;	.line	850; "MC32P7351.c"	GET_SMG_VALUE(BUFF_SMG_DAT);
0002d1   760d     clrr    0xd              	CLRR	r0x104B
0002d2   3c0a     movai   0xa              	MOVAI	0x0a
0002d3   5604     movra   0x4              	MOVRA	STK02
0002d4   3c00     movai   0                	MOVAI	0x00
0002d5   5605     movra   0x5              	MOVRA	STK01
                                           ;;108	MOVAR	r0x104A
0002d6   580b     movar   0xb              	MOVAR	r0x1049
0002d7   560c     movra   0xc              	MOVRA	r0x104A
0002d8   5606     movra   0x6              	MOVRA	STK00
0002d9   3c00     movai   0                	MOVAI	0x00
0002da   86b5     call    0x6b5            	CALL	__modsint
0002db   560d     movra   0xd              	MOVRA	r0x104B
0002dc   5806     movar   0x6              	MOVAR	STK00
0002dd   566a     movra   0x6a             	MOVRA	_BUFF_SMG_DAT
0002de   560c     movra   0xc              	MOVRA	r0x104A
                                           ;;105	MOVAR	r0x104A
                                           ;	.line	851; "MC32P7351.c"	B_SMG_B.byte=G_VAL;
0002df   586a     movar   0x6a             	MOVAR	_BUFF_SMG_DAT
0002e0   8307     call    0x307            	CALL	_GET_SMG_VALUE
                                           ;;gen.c:6570: size=0, offset=0, AOP_TYPE(res)=8
                                           ;	.line	852; "MC32P7351.c"	}
0002e1   5872     movar   0x72             	MOVAR	_G_VAL
0002e2   5663     movra   0x63             	MOVRA	(_B_SMG_B + 0)
0002e3   a306     goto    0x306            	GOTO	_00592_DS_
                                           ;;gen.c:6570: size=0, offset=0, AOP_TYPE(res)=8
                                           _00587_DS_
                                           ;	.line	856; "MC32P7351.c"	BUFF_SMG_DAT=DL%10;
0002e4   7664     clrr    0x64             	CLRR	(_B_SMG_C + 0)
                                           ;;101	MOVAR	r0x1049
                                           ;	.line	857; "MC32P7351.c"	GET_SMG_VALUE(BUFF_SMG_DAT);
0002e5   760d     clrr    0xd              	CLRR	r0x104B
0002e6   3c0a     movai   0xa              	MOVAI	0x0a
0002e7   5604     movra   0x4              	MOVRA	STK02
0002e8   3c00     movai   0                	MOVAI	0x00
0002e9   5605     movra   0x5              	MOVRA	STK01
                                           ;;100	MOVAR	r0x104A
0002ea   580b     movar   0xb              	MOVAR	r0x1049
0002eb   560c     movra   0xc              	MOVRA	r0x104A
0002ec   5606     movra   0x6              	MOVRA	STK00
0002ed   3c00     movai   0                	MOVAI	0x00
0002ee   86b5     call    0x6b5            	CALL	__modsint
                                           ;;1	MOVRA	r0x104C
0002ef   5806     movar   0x6              	MOVAR	STK00
0002f0   566a     movra   0x6a             	MOVRA	_BUFF_SMG_DAT
0002f1   560b     movra   0xb              	MOVRA	r0x1049
                                           ;;104	MOVAR	r0x1049
                                           ;	.line	858; "MC32P7351.c"	B_SMG_B.byte=G_VAL;
0002f2   586a     movar   0x6a             	MOVAR	_BUFF_SMG_DAT
0002f3   8307     call    0x307            	CALL	_GET_SMG_VALUE
                                           ;;gen.c:6570: size=0, offset=0, AOP_TYPE(res)=8
                                           ;	.line	859; "MC32P7351.c"	BUFF_SMG_DAT=DL/10;
0002f4   5872     movar   0x72             	MOVAR	_G_VAL
0002f5   5663     movra   0x63             	MOVRA	(_B_SMG_B + 0)
                                           ;	.line	860; "MC32P7351.c"	GET_SMG_VALUE(BUFF_SMG_DAT);
0002f6   3c0a     movai   0xa              	MOVAI	0x0a
0002f7   5604     movra   0x4              	MOVRA	STK02
0002f8   3c00     movai   0                	MOVAI	0x00
0002f9   5605     movra   0x5              	MOVRA	STK01
0002fa   580c     movar   0xc              	MOVAR	r0x104A
0002fb   5606     movra   0x6              	MOVRA	STK00
0002fc   580d     movar   0xd              	MOVAR	r0x104B
0002fd   8625     call    0x625            	CALL	__divsint
0002fe   560c     movra   0xc              	MOVRA	r0x104A
0002ff   5806     movar   0x6              	MOVAR	STK00
000300   566a     movra   0x6a             	MOVRA	_BUFF_SMG_DAT
000301   560b     movra   0xb              	MOVRA	r0x1049
                                           ;;99	MOVAR	r0x1049
                                           ;	.line	861; "MC32P7351.c"	B_SMG_S.byte=G_VAL;
000302   586a     movar   0x6a             	MOVAR	_BUFF_SMG_DAT
000303   8307     call    0x307            	CALL	_GET_SMG_VALUE
                                           ;;gen.c:6570: size=0, offset=0, AOP_TYPE(res)=8
                                           ;	.line	862; "MC32P7351.c"	}
000304   5872     movar   0x72             	MOVAR	_G_VAL
000305   5662     movra   0x62             	MOVRA	(_B_SMG_S + 0)
                                           _00592_DS_
                                           ;	.line	865; "MC32P7351.c"	/********************** SCAN_HOT_BAT_AD *************/
000306   000c     return                   	RETURN	
                                           ; exit point of _SET_DL_DIS
                                           
                                           ;***
                                           ;  pBlock Stats: dbName = C
                                           ;***
                                           ;entry:  _GET_SMG_VALUE	;Function start
                                           ; 2 exit points
                                           ;has an exit
                                           ;1 compiler assigned register :
                                           ;   r0x1048
                                           ;; Starting pCode block
                                           _GET_SMG_VALUE	;Function start
                                           ; 2 exit points
                                           ;	.line	773; "MC32P7351.c"	{
000307   560a     movra   0xa              	MOVRA	r0x1048
                                           ;	.line	776; "MC32P7351.c"	{
000308   3c00     movai   0                	MOVAI	0x00
000309   5c0a     orar    0xa              	ORAR	r0x1048
00030a   e587     jbset   0x187, 0x2       	JBSET	PFLAG,2
00030b   a30f     goto    0x30f            	GOTO	_00579_DS_
                                           ;	.line	778; "MC32P7351.c"	}
00030c   3c3f     movai   0x3f             	MOVAI	0x3f
00030d   5672     movra   0x72             	MOVRA	_G_VAL
00030e   a354     goto    0x354            	GOTO	_00581_DS_
                                           _00579_DS_
                                           ;	.line	781; "MC32P7351.c"	{
00030f   580a     movar   0xa              	MOVAR	r0x1048
000310   3901     xorai   0x1              	XORAI	0x01
000311   e587     jbset   0x187, 0x2       	JBSET	PFLAG,2
000312   a316     goto    0x316            	GOTO	_00576_DS_
                                           ;	.line	783; "MC32P7351.c"	}
000313   3c06     movai   0x6              	MOVAI	0x06
000314   5672     movra   0x72             	MOVRA	_G_VAL
000315   a354     goto    0x354            	GOTO	_00581_DS_
                                           _00576_DS_
                                           ;	.line	786; "MC32P7351.c"	{
000316   580a     movar   0xa              	MOVAR	r0x1048
000317   3902     xorai   0x2              	XORAI	0x02
000318   e587     jbset   0x187, 0x2       	JBSET	PFLAG,2
000319   a31d     goto    0x31d            	GOTO	_00573_DS_
                                           ;	.line	788; "MC32P7351.c"	}
00031a   3c5b     movai   0x5b             	MOVAI	0x5b
00031b   5672     movra   0x72             	MOVRA	_G_VAL
00031c   a354     goto    0x354            	GOTO	_00581_DS_
                                           _00573_DS_
                                           ;	.line	791; "MC32P7351.c"	{
00031d   580a     movar   0xa              	MOVAR	r0x1048
00031e   3903     xorai   0x3              	XORAI	0x03
00031f   e587     jbset   0x187, 0x2       	JBSET	PFLAG,2
000320   a324     goto    0x324            	GOTO	_00570_DS_
                                           ;	.line	793; "MC32P7351.c"	}
000321   3c4f     movai   0x4f             	MOVAI	0x4f
000322   5672     movra   0x72             	MOVRA	_G_VAL
000323   a354     goto    0x354            	GOTO	_00581_DS_
                                           _00570_DS_
                                           ;	.line	796; "MC32P7351.c"	{
000324   580a     movar   0xa              	MOVAR	r0x1048
000325   3904     xorai   0x4              	XORAI	0x04
000326   e587     jbset   0x187, 0x2       	JBSET	PFLAG,2
000327   a32b     goto    0x32b            	GOTO	_00567_DS_
                                           ;	.line	798; "MC32P7351.c"	}
000328   3c66     movai   0x66             	MOVAI	0x66
000329   5672     movra   0x72             	MOVRA	_G_VAL
00032a   a354     goto    0x354            	GOTO	_00581_DS_
                                           _00567_DS_
                                           ;	.line	801; "MC32P7351.c"	{
00032b   580a     movar   0xa              	MOVAR	r0x1048
00032c   3905     xorai   0x5              	XORAI	0x05
00032d   e587     jbset   0x187, 0x2       	JBSET	PFLAG,2
00032e   a332     goto    0x332            	GOTO	_00564_DS_
                                           ;	.line	803; "MC32P7351.c"	}
00032f   3c6d     movai   0x6d             	MOVAI	0x6d
000330   5672     movra   0x72             	MOVRA	_G_VAL
000331   a354     goto    0x354            	GOTO	_00581_DS_
                                           _00564_DS_
                                           ;	.line	806; "MC32P7351.c"	{
000332   580a     movar   0xa              	MOVAR	r0x1048
000333   3906     xorai   0x6              	XORAI	0x06
000334   e587     jbset   0x187, 0x2       	JBSET	PFLAG,2
000335   a339     goto    0x339            	GOTO	_00561_DS_
                                           ;	.line	808; "MC32P7351.c"	}
000336   3c7d     movai   0x7d             	MOVAI	0x7d
000337   5672     movra   0x72             	MOVRA	_G_VAL
000338   a354     goto    0x354            	GOTO	_00581_DS_
                                           _00561_DS_
                                           ;	.line	811; "MC32P7351.c"	{
000339   580a     movar   0xa              	MOVAR	r0x1048
00033a   3907     xorai   0x7              	XORAI	0x07
00033b   e587     jbset   0x187, 0x2       	JBSET	PFLAG,2
00033c   a340     goto    0x340            	GOTO	_00558_DS_
                                           ;	.line	813; "MC32P7351.c"	}
00033d   3c07     movai   0x7              	MOVAI	0x07
00033e   5672     movra   0x72             	MOVRA	_G_VAL
00033f   a354     goto    0x354            	GOTO	_00581_DS_
                                           _00558_DS_
                                           ;	.line	816; "MC32P7351.c"	{
000340   580a     movar   0xa              	MOVAR	r0x1048
000341   3908     xorai   0x8              	XORAI	0x08
000342   e587     jbset   0x187, 0x2       	JBSET	PFLAG,2
000343   a347     goto    0x347            	GOTO	_00555_DS_
                                           ;	.line	818; "MC32P7351.c"	}
000344   3c7f     movai   0x7f             	MOVAI	0x7f
000345   5672     movra   0x72             	MOVRA	_G_VAL
000346   a354     goto    0x354            	GOTO	_00581_DS_
                                           _00555_DS_
                                           ;	.line	821; "MC32P7351.c"	{
000347   580a     movar   0xa              	MOVAR	r0x1048
000348   3909     xorai   0x9              	XORAI	0x09
000349   e587     jbset   0x187, 0x2       	JBSET	PFLAG,2
00034a   a34e     goto    0x34e            	GOTO	_00552_DS_
                                           ;	.line	823; "MC32P7351.c"	}
00034b   3c6f     movai   0x6f             	MOVAI	0x6f
00034c   5672     movra   0x72             	MOVRA	_G_VAL
00034d   a354     goto    0x354            	GOTO	_00581_DS_
                                           _00552_DS_
                                           ;	.line	826; "MC32P7351.c"	{
00034e   580a     movar   0xa              	MOVAR	r0x1048
00034f   390a     xorai   0xa              	XORAI	0x0a
000350   e587     jbset   0x187, 0x2       	JBSET	PFLAG,2
000351   a354     goto    0x354            	GOTO	_00581_DS_
                                           ;	.line	828; "MC32P7351.c"	}
000352   3c71     movai   0x71             	MOVAI	0x71
000353   5672     movra   0x72             	MOVRA	_G_VAL
                                           _00581_DS_
                                           ;	.line	832; "MC32P7351.c"	
000354   000c     return                   	RETURN	
                                           ; exit point of _GET_SMG_VALUE
                                           
                                           ;***
                                           ;  pBlock Stats: dbName = C
                                           ;***
                                           ;entry:  _SCAN_SMG_DIS	;Function start
                                           ; 2 exit points
                                           ;has an exit
                                           ;functions called:
                                           ;   _SET_DL_DIS
                                           ;   _SET_DL_DIS
                                           ;   _SET_DL_DIS
                                           ;   _SET_DL_DIS
                                           ;1 compiler assigned register :
                                           ;   r0x104D
                                           ;; Starting pCode block
                                           _SCAN_SMG_DIS	;Function start
                                           ; 2 exit points
                                           ;	.line	557; "MC32P7351.c"	if(!UP_POWER_F)
000355   fa61     jbclr   0x61, 0x5        	JBCLR	_KEY_FLAG,5
000356   a36c     goto    0x36c            	GOTO	_00405_DS_
                                           ;;gen.c:6570: size=0, offset=0, AOP_TYPE(res)=8
                                           ;	.line	559; "MC32P7351.c"	B_SMG_S.byte=0XFF;
000357   3cff     movai   0xff             	MOVAI	0xff
000358   5662     movra   0x62             	MOVRA	(_B_SMG_S + 0)
                                           ;;gen.c:6570: size=0, offset=0, AOP_TYPE(res)=8
                                           ;	.line	560; "MC32P7351.c"	B_SMG_B.byte=0XFF;
000359   3cff     movai   0xff             	MOVAI	0xff
00035a   5663     movra   0x63             	MOVRA	(_B_SMG_B + 0)
                                           ;;gen.c:6570: size=0, offset=0, AOP_TYPE(res)=8
                                           ;	.line	561; "MC32P7351.c"	B_SMG_C.byte=0XFF;
00035b   3cff     movai   0xff             	MOVAI	0xff
00035c   5664     movra   0x64             	MOVRA	(_B_SMG_C + 0)
                                           ;	.line	562; "MC32P7351.c"	CHARGE_CNT++;
00035d   6641     incr    0x41             	INCR	_CHARGE_CNT
00035e   f587     jbclr   0x187, 0x2       	JBCLR	PFLAG,2
00035f   6642     incr    0x42             	INCR	(_CHARGE_CNT + 1)
                                           ;;swapping arguments (AOP_TYPEs 1/3)
                                           ;;unsigned compare: left >= lit(0x5DC=1500), size=2
                                           ;	.line	563; "MC32P7351.c"	if(CHARGE_CNT>1499)
000360   3c05     movai   0x5              	MOVAI	0x05
000361   4842     rsubar  0x42             	RSUBAR	(_CHARGE_CNT + 1)
000362   e587     jbset   0x187, 0x2       	JBSET	PFLAG,2
000363   a366     goto    0x366            	GOTO	_00533_DS_
000364   3cdc     movai   0xdc             	MOVAI	0xdc
000365   4841     rsubar  0x41             	RSUBAR	_CHARGE_CNT
                                           _00533_DS_
000366   e187     jbset   0x187, 0         	JBSET	PFLAG,0
000367   a47b     goto    0x47b            	GOTO	_00407_DS_
                                           ;;genSkipc:3291: created from rifx:013B5EFC
                                           ;	.line	565; "MC32P7351.c"	CHARGE_CNT=0;
000368   7641     clrr    0x41             	CLRR	_CHARGE_CNT
000369   7642     clrr    0x42             	CLRR	(_CHARGE_CNT + 1)
                                           ;	.line	566; "MC32P7351.c"	UP_POWER_F=1;
00036a   ca61     bset    0x61, 0x5        	BSET	_KEY_FLAG,5
00036b   a47b     goto    0x47b            	GOTO	_00407_DS_
                                           _00405_DS_
                                           ;	.line	570; "MC32P7351.c"	else if((WORK_ON||CHARGE_EN)&&(B_UP_POWER_CK))	
00036c   f461     jbclr   0x61, 0x2        	JBCLR	_KEY_FLAG,2
00036d   a370     goto    0x370            	GOTO	_00403_DS_
00036e   e45f     jbset   0x5f, 0x2        	JBSET	_flag1,2
00036f   a471     goto    0x471            	GOTO	_00400_DS_
                                           _00403_DS_
000370   e65f     jbset   0x5f, 0x3        	JBSET	_flag1,3
000371   a471     goto    0x471            	GOTO	_00400_DS_
                                           ;	.line	572; "MC32P7351.c"	if(B_MOTO_LEVE_ZS)
000372   ea5f     jbset   0x5f, 0x5        	JBSET	_flag1,5
000373   a3b7     goto    0x3b7            	GOTO	_00397_DS_
                                           ;	.line	574; "MC32P7351.c"	if(MOTO_MODE==1)
000374   5868     movar   0x68             	MOVAR	_MOTO_MODE
000375   3901     xorai   0x1              	XORAI	0x01
000376   e587     jbset   0x187, 0x2       	JBSET	PFLAG,2
000377   a37e     goto    0x37e            	GOTO	_00346_DS_
                                           ;;gen.c:6570: size=0, offset=0, AOP_TYPE(res)=8
                                           ;	.line	576; "MC32P7351.c"	B_SMG_S.byte=0X00;
000378   7662     clrr    0x62             	CLRR	(_B_SMG_S + 0)
                                           ;;gen.c:6570: size=0, offset=0, AOP_TYPE(res)=8
                                           ;	.line	577; "MC32P7351.c"	B_SMG_B.byte=0X06;
000379   3c06     movai   0x6              	MOVAI	0x06
00037a   5663     movra   0x63             	MOVRA	(_B_SMG_B + 0)
                                           ;;gen.c:6570: size=0, offset=0, AOP_TYPE(res)=8
                                           ;	.line	578; "MC32P7351.c"	B_SMG_C.byte=0X00;
00037b   7664     clrr    0x64             	CLRR	(_B_SMG_C + 0)
                                           ;	.line	579; "MC32P7351.c"	B_K_CHARGE=0;
00037c   d664     bclr    0x64, 0x3        	BCLR	_B_SMG_C,3
00037d   a3a5     goto    0x3a5            	GOTO	_00347_DS_
                                           _00346_DS_
                                           ;	.line	581; "MC32P7351.c"	else if(MOTO_MODE==2)
00037e   5868     movar   0x68             	MOVAR	_MOTO_MODE
00037f   3902     xorai   0x2              	XORAI	0x02
000380   e587     jbset   0x187, 0x2       	JBSET	PFLAG,2
000381   a388     goto    0x388            	GOTO	_00343_DS_
                                           ;;gen.c:6570: size=0, offset=0, AOP_TYPE(res)=8
                                           ;	.line	583; "MC32P7351.c"	B_SMG_S.byte=0X00;
000382   7662     clrr    0x62             	CLRR	(_B_SMG_S + 0)
                                           ;;gen.c:6570: size=0, offset=0, AOP_TYPE(res)=8
                                           ;	.line	584; "MC32P7351.c"	B_SMG_B.byte=0X5B;
000383   3c5b     movai   0x5b             	MOVAI	0x5b
000384   5663     movra   0x63             	MOVRA	(_B_SMG_B + 0)
                                           ;;gen.c:6570: size=0, offset=0, AOP_TYPE(res)=8
                                           ;	.line	585; "MC32P7351.c"	B_SMG_C.byte=0X00;
000385   7664     clrr    0x64             	CLRR	(_B_SMG_C + 0)
                                           ;	.line	586; "MC32P7351.c"	B_K_CHARGE=0;
000386   d664     bclr    0x64, 0x3        	BCLR	_B_SMG_C,3
000387   a3a5     goto    0x3a5            	GOTO	_00347_DS_
                                           _00343_DS_
                                           ;	.line	588; "MC32P7351.c"	else if(MOTO_MODE==3)
000388   5868     movar   0x68             	MOVAR	_MOTO_MODE
000389   3903     xorai   0x3              	XORAI	0x03
00038a   e587     jbset   0x187, 0x2       	JBSET	PFLAG,2
00038b   a392     goto    0x392            	GOTO	_00340_DS_
                                           ;;gen.c:6570: size=0, offset=0, AOP_TYPE(res)=8
                                           ;	.line	590; "MC32P7351.c"	B_SMG_S.byte=0X00;
00038c   7662     clrr    0x62             	CLRR	(_B_SMG_S + 0)
                                           ;;gen.c:6570: size=0, offset=0, AOP_TYPE(res)=8
                                           ;	.line	591; "MC32P7351.c"	B_SMG_B.byte=0X4F;
00038d   3c4f     movai   0x4f             	MOVAI	0x4f
00038e   5663     movra   0x63             	MOVRA	(_B_SMG_B + 0)
                                           ;;gen.c:6570: size=0, offset=0, AOP_TYPE(res)=8
                                           ;	.line	592; "MC32P7351.c"	B_SMG_C.byte=0X00;
00038f   7664     clrr    0x64             	CLRR	(_B_SMG_C + 0)
                                           ;	.line	593; "MC32P7351.c"	B_K_CHARGE=0;
000390   d664     bclr    0x64, 0x3        	BCLR	_B_SMG_C,3
000391   a3a5     goto    0x3a5            	GOTO	_00347_DS_
                                           _00340_DS_
                                           ;	.line	596; "MC32P7351.c"	else if(MOTO_MODE==4)
000392   5868     movar   0x68             	MOVAR	_MOTO_MODE
000393   3904     xorai   0x4              	XORAI	0x04
000394   e587     jbset   0x187, 0x2       	JBSET	PFLAG,2
000395   a39c     goto    0x39c            	GOTO	_00337_DS_
                                           ;;gen.c:6570: size=0, offset=0, AOP_TYPE(res)=8
                                           ;	.line	598; "MC32P7351.c"	B_SMG_S.byte=0X00;
000396   7662     clrr    0x62             	CLRR	(_B_SMG_S + 0)
                                           ;;gen.c:6570: size=0, offset=0, AOP_TYPE(res)=8
                                           ;	.line	599; "MC32P7351.c"	B_SMG_B.byte=0X66;
000397   3c66     movai   0x66             	MOVAI	0x66
000398   5663     movra   0x63             	MOVRA	(_B_SMG_B + 0)
                                           ;;gen.c:6570: size=0, offset=0, AOP_TYPE(res)=8
                                           ;	.line	600; "MC32P7351.c"	B_SMG_C.byte=0X00;
000399   7664     clrr    0x64             	CLRR	(_B_SMG_C + 0)
                                           ;	.line	601; "MC32P7351.c"	B_K_CHARGE=0;
00039a   d664     bclr    0x64, 0x3        	BCLR	_B_SMG_C,3
00039b   a3a5     goto    0x3a5            	GOTO	_00347_DS_
                                           _00337_DS_
                                           ;	.line	604; "MC32P7351.c"	else if(MOTO_MODE==5)
00039c   5868     movar   0x68             	MOVAR	_MOTO_MODE
00039d   3905     xorai   0x5              	XORAI	0x05
00039e   e587     jbset   0x187, 0x2       	JBSET	PFLAG,2
00039f   a3a5     goto    0x3a5            	GOTO	_00347_DS_
                                           ;;gen.c:6570: size=0, offset=0, AOP_TYPE(res)=8
                                           ;	.line	606; "MC32P7351.c"	B_SMG_S.byte=0X00;
0003a0   7662     clrr    0x62             	CLRR	(_B_SMG_S + 0)
                                           ;;gen.c:6570: size=0, offset=0, AOP_TYPE(res)=8
                                           ;	.line	607; "MC32P7351.c"	B_SMG_B.byte=0X6D;
0003a1   3c6d     movai   0x6d             	MOVAI	0x6d
0003a2   5663     movra   0x63             	MOVRA	(_B_SMG_B + 0)
                                           ;;gen.c:6570: size=0, offset=0, AOP_TYPE(res)=8
                                           ;	.line	608; "MC32P7351.c"	B_SMG_C.byte=0X00;
0003a3   7664     clrr    0x64             	CLRR	(_B_SMG_C + 0)
                                           ;	.line	609; "MC32P7351.c"	B_K_CHARGE=0;
0003a4   d664     bclr    0x64, 0x3        	BCLR	_B_SMG_C,3
                                           _00347_DS_
                                           ;	.line	612; "MC32P7351.c"	MOTO_DIS_CNT++;
0003a5   663f     incr    0x3f             	INCR	_MOTO_DIS_CNT
0003a6   f587     jbclr   0x187, 0x2       	JBCLR	PFLAG,2
0003a7   6640     incr    0x40             	INCR	(_MOTO_DIS_CNT + 1)
                                           ;;swapping arguments (AOP_TYPEs 1/3)
                                           ;;unsigned compare: left >= lit(0x5DC=1500), size=2
                                           ;	.line	613; "MC32P7351.c"	if(MOTO_DIS_CNT>1499)
0003a8   3c05     movai   0x5              	MOVAI	0x05
0003a9   4840     rsubar  0x40             	RSUBAR	(_MOTO_DIS_CNT + 1)
0003aa   e587     jbset   0x187, 0x2       	JBSET	PFLAG,2
0003ab   a3ae     goto    0x3ae            	GOTO	_00534_DS_
0003ac   3cdc     movai   0xdc             	MOVAI	0xdc
0003ad   483f     rsubar  0x3f             	RSUBAR	_MOTO_DIS_CNT
                                           _00534_DS_
0003ae   e187     jbset   0x187, 0         	JBSET	PFLAG,0
0003af   a47b     goto    0x47b            	GOTO	_00407_DS_
                                           ;;genSkipc:3291: created from rifx:013B5EFC
                                           ;	.line	615; "MC32P7351.c"	MOTO_DIS_CNT=0;
0003b0   763f     clrr    0x3f             	CLRR	_MOTO_DIS_CNT
0003b1   7640     clrr    0x40             	CLRR	(_MOTO_DIS_CNT + 1)
                                           ;	.line	616; "MC32P7351.c"	B_MOTO_LEVE_ZS=0;
0003b2   da5f     bclr    0x5f, 0x5        	BCLR	_flag1,5
                                           ;	.line	618; "MC32P7351.c"	DL_DIS_CNT=0;
0003b3   766f     clrr    0x6f             	CLRR	_DL_DIS_CNT
                                           ;	.line	619; "MC32P7351.c"	PL_DIS_CNT1=0;
0003b4   765d     clrr    0x5d             	CLRR	_PL_DIS_CNT1
0003b5   765e     clrr    0x5e             	CLRR	(_PL_DIS_CNT1 + 1)
0003b6   a47b     goto    0x47b            	GOTO	_00407_DS_
                                           _00397_DS_
                                           ;	.line	625; "MC32P7351.c"	if(CHARGE_EN)
0003b7   e45f     jbset   0x5f, 0x2        	JBSET	_flag1,2
0003b8   a3dc     goto    0x3dc            	GOTO	_00369_DS_
                                           ;	.line	627; "MC32P7351.c"	DL_DIS_CNT2=0;
0003b9   7645     clrr    0x45             	CLRR	_DL_DIS_CNT2
0003ba   7646     clrr    0x46             	CLRR	(_DL_DIS_CNT2 + 1)
                                           ;	.line	628; "MC32P7351.c"	DL_DIS_CNT1++;
0003bb   6643     incr    0x43             	INCR	_DL_DIS_CNT1
0003bc   f587     jbclr   0x187, 0x2       	JBCLR	PFLAG,2
0003bd   6644     incr    0x44             	INCR	(_DL_DIS_CNT1 + 1)
                                           ;;swapping arguments (AOP_TYPEs 1/3)
                                           ;;unsigned compare: left >= lit(0x61A8=25000), size=2
                                           ;	.line	629; "MC32P7351.c"	if(DL_DIS_CNT1>24999) //29999
0003be   3c61     movai   0x61             	MOVAI	0x61
0003bf   4844     rsubar  0x44             	RSUBAR	(_DL_DIS_CNT1 + 1)
0003c0   e587     jbset   0x187, 0x2       	JBSET	PFLAG,2
0003c1   a3c4     goto    0x3c4            	GOTO	_00535_DS_
0003c2   3ca8     movai   0xa8             	MOVAI	0xa8
0003c3   4843     rsubar  0x43             	RSUBAR	_DL_DIS_CNT1
                                           _00535_DS_
0003c4   e187     jbset   0x187, 0         	JBSET	PFLAG,0
0003c5   a411     goto    0x411            	GOTO	_00370_DS_
                                           ;;genSkipc:3291: created from rifx:013B5EFC
                                           ;	.line	631; "MC32P7351.c"	DL_DIS_CNT1=0;
0003c6   7643     clrr    0x43             	CLRR	_DL_DIS_CNT1
0003c7   7644     clrr    0x44             	CLRR	(_DL_DIS_CNT1 + 1)
                                           ;	.line	632; "MC32P7351.c"	if(BUFF_BAT_VALUE>SET_BAT_VALUE)
0003c8   5848     movar   0x48             	MOVAR	(_BUFF_BAT_VALUE + 1)
0003c9   484a     rsubar  0x4a             	RSUBAR	(_SET_BAT_VALUE + 1)
0003ca   e587     jbset   0x187, 0x2       	JBSET	PFLAG,2
0003cb   a3ce     goto    0x3ce            	GOTO	_00536_DS_
0003cc   5847     movar   0x47             	MOVAR	_BUFF_BAT_VALUE
0003cd   4849     rsubar  0x49             	RSUBAR	_SET_BAT_VALUE
                                           _00536_DS_
0003ce   f187     jbclr   0x187, 0         	JBCLR	PFLAG,0
0003cf   a411     goto    0x411            	GOTO	_00370_DS_
                                           ;;genSkipc:3291: created from rifx:013B5EFC
                                           ;;unsigned compare: left < lit(0x64=100), size=2
                                           ;	.line	634; "MC32P7351.c"	if(SET_BAT_VALUE<100)
0003d0   3c00     movai   0                	MOVAI	0x00
0003d1   484a     rsubar  0x4a             	RSUBAR	(_SET_BAT_VALUE + 1)
0003d2   e587     jbset   0x187, 0x2       	JBSET	PFLAG,2
0003d3   a3d6     goto    0x3d6            	GOTO	_00537_DS_
0003d4   3c64     movai   0x64             	MOVAI	0x64
0003d5   4849     rsubar  0x49             	RSUBAR	_SET_BAT_VALUE
                                           _00537_DS_
0003d6   f187     jbclr   0x187, 0         	JBCLR	PFLAG,0
0003d7   a411     goto    0x411            	GOTO	_00370_DS_
                                           ;;genSkipc:3291: created from rifx:013B5EFC
                                           ;	.line	636; "MC32P7351.c"	SET_BAT_VALUE++;
0003d8   6649     incr    0x49             	INCR	_SET_BAT_VALUE
0003d9   f587     jbclr   0x187, 0x2       	JBCLR	PFLAG,2
0003da   664a     incr    0x4a             	INCR	(_SET_BAT_VALUE + 1)
0003db   a411     goto    0x411            	GOTO	_00370_DS_
                                           _00369_DS_
                                           ;	.line	642; "MC32P7351.c"	else if(WORK_ON)	
0003dc   e461     jbset   0x61, 0x2        	JBSET	_KEY_FLAG,2
0003dd   a411     goto    0x411            	GOTO	_00370_DS_
                                           ;	.line	644; "MC32P7351.c"	DL_DIS_CNT1=0;
0003de   7643     clrr    0x43             	CLRR	_DL_DIS_CNT1
0003df   7644     clrr    0x44             	CLRR	(_DL_DIS_CNT1 + 1)
                                           ;	.line	645; "MC32P7351.c"	DL_DIS_CNT2++;
0003e0   6645     incr    0x45             	INCR	_DL_DIS_CNT2
0003e1   f587     jbclr   0x187, 0x2       	JBCLR	PFLAG,2
0003e2   6646     incr    0x46             	INCR	(_DL_DIS_CNT2 + 1)
                                           ;;swapping arguments (AOP_TYPEs 1/3)
                                           ;;unsigned compare: left >= lit(0x61A8=25000), size=2
                                           ;	.line	646; "MC32P7351.c"	if(DL_DIS_CNT2>24999)  //29999
0003e3   3c61     movai   0x61             	MOVAI	0x61
0003e4   4846     rsubar  0x46             	RSUBAR	(_DL_DIS_CNT2 + 1)
0003e5   e587     jbset   0x187, 0x2       	JBSET	PFLAG,2
0003e6   a3e9     goto    0x3e9            	GOTO	_00538_DS_
0003e7   3ca8     movai   0xa8             	MOVAI	0xa8
0003e8   4845     rsubar  0x45             	RSUBAR	_DL_DIS_CNT2
                                           _00538_DS_
0003e9   e187     jbset   0x187, 0         	JBSET	PFLAG,0
0003ea   a408     goto    0x408            	GOTO	_00363_DS_
                                           ;;genSkipc:3291: created from rifx:013B5EFC
                                           ;	.line	648; "MC32P7351.c"	DL_DIS_CNT2=0;
0003eb   7645     clrr    0x45             	CLRR	_DL_DIS_CNT2
0003ec   7646     clrr    0x46             	CLRR	(_DL_DIS_CNT2 + 1)
                                           ;	.line	650; "MC32P7351.c"	if(SET_BAT_VALUE==0)
0003ed   5849     movar   0x49             	MOVAR	_SET_BAT_VALUE
0003ee   5c4a     orar    0x4a             	ORAR	(_SET_BAT_VALUE + 1)
0003ef   e587     jbset   0x187, 0x2       	JBSET	PFLAG,2
0003f0   a3f8     goto    0x3f8            	GOTO	_00357_DS_
                                           ;	.line	652; "MC32P7351.c"	B_LOW_POWER_F=1;
0003f1   c060     bset    0x60, 0          	BSET	_flag2,0
                                           ;	.line	653; "MC32P7351.c"	B_LOW_P_DIS_F=0;
0003f2   d260     bclr    0x60, 0x1        	BCLR	_flag2,1
                                           ;	.line	654; "MC32P7351.c"	WORK_ON=0;
0003f3   d461     bclr    0x61, 0x2        	BCLR	_KEY_FLAG,2
                                           ;	.line	655; "MC32P7351.c"	MOTO_DIS_CNT=0;
0003f4   763f     clrr    0x3f             	CLRR	_MOTO_DIS_CNT
0003f5   7640     clrr    0x40             	CLRR	(_MOTO_DIS_CNT + 1)
                                           ;	.line	656; "MC32P7351.c"	B_MOTO_LEVE_ZS=0;
0003f6   da5f     bclr    0x5f, 0x5        	BCLR	_flag1,5
                                           ;	.line	657; "MC32P7351.c"	MOTO_MODE=0;
0003f7   7668     clrr    0x68             	CLRR	_MOTO_MODE
                                           _00357_DS_
                                           ;	.line	661; "MC32P7351.c"	if(BUFF_BAT_VALUE<SET_BAT_VALUE)
0003f8   584a     movar   0x4a             	MOVAR	(_SET_BAT_VALUE + 1)
0003f9   4848     rsubar  0x48             	RSUBAR	(_BUFF_BAT_VALUE + 1)
0003fa   e587     jbset   0x187, 0x2       	JBSET	PFLAG,2
0003fb   a3fe     goto    0x3fe            	GOTO	_00539_DS_
0003fc   5849     movar   0x49             	MOVAR	_SET_BAT_VALUE
0003fd   4847     rsubar  0x47             	RSUBAR	_BUFF_BAT_VALUE
                                           _00539_DS_
0003fe   f187     jbclr   0x187, 0         	JBCLR	PFLAG,0
0003ff   a408     goto    0x408            	GOTO	_00363_DS_
                                           ;;genSkipc:3291: created from rifx:013B5EFC
                                           ;	.line	663; "MC32P7351.c"	if(SET_BAT_VALUE>0)
000400   5849     movar   0x49             	MOVAR	_SET_BAT_VALUE
000401   5c4a     orar    0x4a             	ORAR	(_SET_BAT_VALUE + 1)
000402   f587     jbclr   0x187, 0x2       	JBCLR	PFLAG,2
000403   a408     goto    0x408            	GOTO	_00363_DS_
                                           ;	.line	665; "MC32P7351.c"	SET_BAT_VALUE--;
000404   3cff     movai   0xff             	MOVAI	0xff
000405   7e49     addra   0x49             	ADDRA	_SET_BAT_VALUE
000406   e187     jbset   0x187, 0         	JBSET	PFLAG,0
000407   6e4a     decr    0x4a             	DECR	(_SET_BAT_VALUE + 1)
                                           ;;unsigned compare: left < lit(0x3=3), size=2
                                           _00363_DS_
                                           ;	.line	671; "MC32P7351.c"	if(SET_BAT_VALUE<3)
000408   3c00     movai   0                	MOVAI	0x00
000409   484a     rsubar  0x4a             	RSUBAR	(_SET_BAT_VALUE + 1)
00040a   e587     jbset   0x187, 0x2       	JBSET	PFLAG,2
00040b   a40e     goto    0x40e            	GOTO	_00540_DS_
00040c   3c03     movai   0x3              	MOVAI	0x03
00040d   4849     rsubar  0x49             	RSUBAR	_SET_BAT_VALUE
                                           _00540_DS_
00040e   f187     jbclr   0x187, 0         	JBCLR	PFLAG,0
00040f   a411     goto    0x411            	GOTO	_00370_DS_
                                           ;;genSkipc:3291: created from rifx:013B5EFC
                                           ;	.line	673; "MC32P7351.c"	B_LOW_P_DIS_F=1;
000410   c260     bset    0x60, 0x1        	BSET	_flag2,1
                                           _00370_DS_
                                           ;	.line	677; "MC32P7351.c"	if(CHARGE_EN)
000411   e45f     jbset   0x5f, 0x2        	JBSET	_flag1,2
000412   a430     goto    0x430            	GOTO	_00380_DS_
                                           ;	.line	679; "MC32P7351.c"	CHARG_DIS_CNT++;
000413   663d     incr    0x3d             	INCR	_CHARG_DIS_CNT
000414   f587     jbclr   0x187, 0x2       	JBCLR	PFLAG,2
000415   663e     incr    0x3e             	INCR	(_CHARG_DIS_CNT + 1)
                                           ;;swapping arguments (AOP_TYPEs 1/3)
                                           ;;unsigned compare: left >= lit(0x3E8=1000), size=2
                                           ;	.line	680; "MC32P7351.c"	if(CHARG_DIS_CNT>999)
000416   3c03     movai   0x3              	MOVAI	0x03
000417   483e     rsubar  0x3e             	RSUBAR	(_CHARG_DIS_CNT + 1)
000418   e587     jbset   0x187, 0x2       	JBSET	PFLAG,2
000419   a41c     goto    0x41c            	GOTO	_00541_DS_
00041a   3ce8     movai   0xe8             	MOVAI	0xe8
00041b   483d     rsubar  0x3d             	RSUBAR	_CHARG_DIS_CNT
                                           _00541_DS_
00041c   e187     jbset   0x187, 0         	JBSET	PFLAG,0
00041d   a420     goto    0x420            	GOTO	_00372_DS_
                                           ;;genSkipc:3291: created from rifx:013B5EFC
                                           ;	.line	682; "MC32P7351.c"	CHARG_DIS_CNT=0;
00041e   763d     clrr    0x3d             	CLRR	_CHARG_DIS_CNT
00041f   763e     clrr    0x3e             	CLRR	(_CHARG_DIS_CNT + 1)
                                           ;;unsigned compare: left < lit(0x1F3=499), size=2
                                           _00372_DS_
                                           ;	.line	684; "MC32P7351.c"	if(CHARG_DIS_CNT<499)
000420   3c01     movai   0x1              	MOVAI	0x01
000421   483e     rsubar  0x3e             	RSUBAR	(_CHARG_DIS_CNT + 1)
000422   e587     jbset   0x187, 0x2       	JBSET	PFLAG,2
000423   a426     goto    0x426            	GOTO	_00542_DS_
000424   3cf3     movai   0xf3             	MOVAI	0xf3
000425   483d     rsubar  0x3d             	RSUBAR	_CHARG_DIS_CNT
                                           _00542_DS_
000426   f187     jbclr   0x187, 0         	JBCLR	PFLAG,0
000427   a42a     goto    0x42a            	GOTO	_00377_DS_
                                           ;;genSkipc:3291: created from rifx:013B5EFC
                                           ;	.line	686; "MC32P7351.c"	B_K_CHARGE=1;
000428   c664     bset    0x64, 0x3        	BSET	_B_SMG_C,3
000429   a433     goto    0x433            	GOTO	_00381_DS_
                                           _00377_DS_
                                           ;	.line	691; "MC32P7351.c"	if(!CHARGE_FULL)
00042a   fc5f     jbclr   0x5f, 0x6        	JBCLR	_flag1,6
00042b   a42e     goto    0x42e            	GOTO	_00374_DS_
                                           ;	.line	693; "MC32P7351.c"	B_K_CHARGE=0;
00042c   d664     bclr    0x64, 0x3        	BCLR	_B_SMG_C,3
00042d   a433     goto    0x433            	GOTO	_00381_DS_
                                           _00374_DS_
                                           ;	.line	697; "MC32P7351.c"	B_K_CHARGE=1;
00042e   c664     bset    0x64, 0x3        	BSET	_B_SMG_C,3
00042f   a433     goto    0x433            	GOTO	_00381_DS_
                                           _00380_DS_
                                           ;	.line	704; "MC32P7351.c"	B_K_CHARGE=0;
000430   d664     bclr    0x64, 0x3        	BCLR	_B_SMG_C,3
                                           ;	.line	705; "MC32P7351.c"	CHARG_DIS_CNT=0;
000431   763d     clrr    0x3d             	CLRR	_CHARG_DIS_CNT
000432   763e     clrr    0x3e             	CLRR	(_CHARG_DIS_CNT + 1)
                                           _00381_DS_
                                           ;	.line	708; "MC32P7351.c"	if(B_LOW_POWER_F)
000433   e060     jbset   0x60, 0          	JBSET	_flag2,0
000434   a43a     goto    0x43a            	GOTO	_00383_DS_
                                           ;	.line	710; "MC32P7351.c"	WORK_ON=0;
000435   d461     bclr    0x61, 0x2        	BCLR	_KEY_FLAG,2
                                           ;	.line	711; "MC32P7351.c"	MOTO_DIS_CNT=0;
000436   763f     clrr    0x3f             	CLRR	_MOTO_DIS_CNT
000437   7640     clrr    0x40             	CLRR	(_MOTO_DIS_CNT + 1)
                                           ;	.line	712; "MC32P7351.c"	B_MOTO_LEVE_ZS=0;
000438   da5f     bclr    0x5f, 0x5        	BCLR	_flag1,5
                                           ;	.line	713; "MC32P7351.c"	MOTO_MODE=0;
000439   7668     clrr    0x68             	CLRR	_MOTO_MODE
                                           _00383_DS_
                                           ;	.line	717; "MC32P7351.c"	{
00043a   e260     jbset   0x60, 0x1        	JBSET	_flag2,1
00043b   a463     goto    0x463            	GOTO	_00394_DS_
                                           ;	.line	719; "MC32P7351.c"	if(PL_DIS_CNT1>999)
00043c   665d     incr    0x5d             	INCR	_PL_DIS_CNT1
00043d   f587     jbclr   0x187, 0x2       	JBCLR	PFLAG,2
00043e   665e     incr    0x5e             	INCR	(_PL_DIS_CNT1 + 1)
                                           ;;swapping arguments (AOP_TYPEs 1/3)
                                           ;;unsigned compare: left >= lit(0x3E8=1000), size=2
                                           ;	.line	720; "MC32P7351.c"	{
00043f   3c03     movai   0x3              	MOVAI	0x03
000440   485e     rsubar  0x5e             	RSUBAR	(_PL_DIS_CNT1 + 1)
000441   e587     jbset   0x187, 0x2       	JBSET	PFLAG,2
000442   a445     goto    0x445            	GOTO	_00543_DS_
000443   3ce8     movai   0xe8             	MOVAI	0xe8
000444   485d     rsubar  0x5d             	RSUBAR	_PL_DIS_CNT1
                                           _00543_DS_
000445   e187     jbset   0x187, 0         	JBSET	PFLAG,0
000446   a449     goto    0x449            	GOTO	_00385_DS_
                                           ;;genSkipc:3291: created from rifx:013B5EFC
                                           ;	.line	722; "MC32P7351.c"	}
000447   765d     clrr    0x5d             	CLRR	_PL_DIS_CNT1
000448   765e     clrr    0x5e             	CLRR	(_PL_DIS_CNT1 + 1)
                                           ;;unsigned compare: left < lit(0x1F3=499), size=2
                                           _00385_DS_
                                           ;	.line	725; "MC32P7351.c"	{
000449   3c01     movai   0x1              	MOVAI	0x01
00044a   485e     rsubar  0x5e             	RSUBAR	(_PL_DIS_CNT1 + 1)
00044b   e587     jbset   0x187, 0x2       	JBSET	PFLAG,2
00044c   a44f     goto    0x44f            	GOTO	_00544_DS_
00044d   3cf3     movai   0xf3             	MOVAI	0xf3
00044e   485d     rsubar  0x5d             	RSUBAR	_PL_DIS_CNT1
                                           _00544_DS_
00044f   f187     jbclr   0x187, 0         	JBCLR	PFLAG,0
000450   a457     goto    0x457            	GOTO	_00389_DS_
                                           ;;genSkipc:3291: created from rifx:013B5EFC
                                           ;	.line	727; "MC32P7351.c"	B_K_CHARGE=0;
000451   766f     clrr    0x6f             	CLRR	_DL_DIS_CNT
                                           ;	.line	728; "MC32P7351.c"	B_SMG_S.byte=0X00;
000452   d664     bclr    0x64, 0x3        	BCLR	_B_SMG_C,3
                                           ;;gen.c:6570: size=0, offset=0, AOP_TYPE(res)=8
                                           ;	.line	729; "MC32P7351.c"	B_SMG_B.byte=0X00;
000453   7662     clrr    0x62             	CLRR	(_B_SMG_S + 0)
                                           ;;gen.c:6570: size=0, offset=0, AOP_TYPE(res)=8
                                           ;	.line	730; "MC32P7351.c"	B_SMG_C.byte=0X00;
000454   7663     clrr    0x63             	CLRR	(_B_SMG_B + 0)
                                           ;;gen.c:6570: size=0, offset=0, AOP_TYPE(res)=8
                                           ;	.line	731; "MC32P7351.c"	}
000455   7664     clrr    0x64             	CLRR	(_B_SMG_C + 0)
000456   a47b     goto    0x47b            	GOTO	_00407_DS_
                                           _00389_DS_
                                           ;	.line	736; "MC32P7351.c"	DL_DIS_CNT++;
000457   c664     bset    0x64, 0x3        	BSET	_B_SMG_C,3
                                           ;	.line	737; "MC32P7351.c"	if(DL_DIS_CNT>49)
000458   666f     incr    0x6f             	INCR	_DL_DIS_CNT
                                           ;;swapping arguments (AOP_TYPEs 1/3)
                                           ;;unsigned compare: left >= lit(0x32=50), size=1
                                           ;	.line	738; "MC32P7351.c"	{
000459   3c32     movai   0x32             	MOVAI	0x32
00045a   486f     rsubar  0x6f             	RSUBAR	_DL_DIS_CNT
00045b   e187     jbset   0x187, 0         	JBSET	PFLAG,0
00045c   a47b     goto    0x47b            	GOTO	_00407_DS_
                                           ;;genSkipc:3291: created from rifx:013B5EFC
                                           ;	.line	740; "MC32P7351.c"	SET_DL_DIS(SET_BAT_VALUE);
00045d   766f     clrr    0x6f             	CLRR	_DL_DIS_CNT
                                           ;	.line	741; "MC32P7351.c"	}
00045e   5849     movar   0x49             	MOVAR	_SET_BAT_VALUE
00045f   5609     movra   0x9              	MOVRA	r0x104D
000460   5809     movar   0x9              	MOVAR	r0x104D
000461   82bf     call    0x2bf            	CALL	_SET_DL_DIS
000462   a47b     goto    0x47b            	GOTO	_00407_DS_
                                           _00394_DS_
                                           ;	.line	748; "MC32P7351.c"	B_K_DL=1;
000463   765d     clrr    0x5d             	CLRR	_PL_DIS_CNT1
000464   765e     clrr    0x5e             	CLRR	(_PL_DIS_CNT1 + 1)
                                           ;	.line	749; "MC32P7351.c"	DL_DIS_CNT++;
000465   c864     bset    0x64, 0x4        	BSET	_B_SMG_C,4
                                           ;	.line	750; "MC32P7351.c"	if(DL_DIS_CNT>49)
000466   666f     incr    0x6f             	INCR	_DL_DIS_CNT
                                           ;;swapping arguments (AOP_TYPEs 1/3)
                                           ;;unsigned compare: left >= lit(0x32=50), size=1
                                           ;	.line	751; "MC32P7351.c"	{
000467   3c32     movai   0x32             	MOVAI	0x32
000468   486f     rsubar  0x6f             	RSUBAR	_DL_DIS_CNT
000469   e187     jbset   0x187, 0         	JBSET	PFLAG,0
00046a   a47b     goto    0x47b            	GOTO	_00407_DS_
                                           ;;genSkipc:3291: created from rifx:013B5EFC
                                           ;	.line	753; "MC32P7351.c"	SET_DL_DIS(SET_BAT_VALUE);
00046b   766f     clrr    0x6f             	CLRR	_DL_DIS_CNT
                                           ;	.line	754; "MC32P7351.c"	}
00046c   5849     movar   0x49             	MOVAR	_SET_BAT_VALUE
00046d   5609     movra   0x9              	MOVRA	r0x104D
00046e   5809     movar   0x9              	MOVAR	r0x104D
00046f   82bf     call    0x2bf            	CALL	_SET_DL_DIS
000470   a47b     goto    0x47b            	GOTO	_00407_DS_
                                           _00400_DS_
                                           ;	.line	761; "MC32P7351.c"	DL_DIS_CNT2=0;
000471   7643     clrr    0x43             	CLRR	_DL_DIS_CNT1
000472   7644     clrr    0x44             	CLRR	(_DL_DIS_CNT1 + 1)
                                           ;	.line	762; "MC32P7351.c"	DL_DIS_CNT=0;
000473   7645     clrr    0x45             	CLRR	_DL_DIS_CNT2
000474   7646     clrr    0x46             	CLRR	(_DL_DIS_CNT2 + 1)
                                           ;	.line	763; "MC32P7351.c"	PL_DIS_CNT1=0;
000475   766f     clrr    0x6f             	CLRR	_DL_DIS_CNT
                                           ;	.line	764; "MC32P7351.c"	B_SMG_S.byte=0;
000476   765d     clrr    0x5d             	CLRR	_PL_DIS_CNT1
000477   765e     clrr    0x5e             	CLRR	(_PL_DIS_CNT1 + 1)
                                           ;;gen.c:6570: size=0, offset=0, AOP_TYPE(res)=8
                                           ;	.line	765; "MC32P7351.c"	B_SMG_B.byte=0;
000478   7662     clrr    0x62             	CLRR	(_B_SMG_S + 0)
                                           ;;gen.c:6570: size=0, offset=0, AOP_TYPE(res)=8
                                           ;	.line	766; "MC32P7351.c"	B_SMG_C.byte=0;
000479   7663     clrr    0x63             	CLRR	(_B_SMG_B + 0)
                                           ;;gen.c:6570: size=0, offset=0, AOP_TYPE(res)=8
                                           ;	.line	767; "MC32P7351.c"	}
00047a   7664     clrr    0x64             	CLRR	(_B_SMG_C + 0)
                                           _00407_DS_
                                           ;	.line	769; "MC32P7351.c"	
00047b   000c     return                   	RETURN	
                                           ; exit point of _SCAN_SMG_DIS
                                           
                                           ;***
                                           ;  pBlock Stats: dbName = C
                                           ;***
                                           ;entry:  _SCAN_SMG_CTR	;Function start
                                           ; 2 exit points
                                           ;has an exit
                                           ;; Starting pCode block
                                           _SCAN_SMG_CTR	;Function start
                                           ; 2 exit points
                                           ;	.line	349; "MC32P7351.c"	P00OE=0;
00047c   d191     bclr    0x191, 0         	BCLR	_OEP0bits,0
                                           ;	.line	350; "MC32P7351.c"	P01OE=0;
00047d   d391     bclr    0x191, 0x1       	BCLR	_OEP0bits,1
                                           ;	.line	351; "MC32P7351.c"	P02OE=0;
00047e   d591     bclr    0x191, 0x2       	BCLR	_OEP0bits,2
                                           ;	.line	352; "MC32P7351.c"	P03OE=0;
00047f   d791     bclr    0x191, 0x3       	BCLR	_OEP0bits,3
                                           ;	.line	353; "MC32P7351.c"	P15OE=0;
000480   db95     bclr    0x195, 0x5       	BCLR	_OEP1bits,5
                                           ;	.line	355; "MC32P7351.c"	B_HAVE_LED=0;
000481   d660     bclr    0x60, 0x3        	BCLR	_flag2,3
                                           ;	.line	357; "MC32P7351.c"	LED_MODE++;
000482   6677     incr    0x77             	INCR	_LED_MODE
                                           ;;swapping arguments (AOP_TYPEs 1/3)
                                           ;;unsigned compare: left >= lit(0x5=5), size=1
                                           ;	.line	358; "MC32P7351.c"	if(LED_MODE>4)
000483   3c05     movai   0x5              	MOVAI	0x05
000484   4877     rsubar  0x77             	RSUBAR	_LED_MODE
000485   e187     jbset   0x187, 0         	JBSET	PFLAG,0
000486   a488     goto    0x488            	GOTO	_00266_DS_
                                           ;;genSkipc:3291: created from rifx:013B5EFC
                                           ;	.line	360; "MC32P7351.c"	LED_MODE=0;
000487   7677     clrr    0x77             	CLRR	_LED_MODE
                                           _00266_DS_
                                           ;	.line	363; "MC32P7351.c"	if(LED_MODE==0)
000488   3c00     movai   0                	MOVAI	0x00
000489   5c77     orar    0x77             	ORAR	_LED_MODE
00048a   e587     jbset   0x187, 0x2       	JBSET	PFLAG,2
00048b   a4a0     goto    0x4a0            	GOTO	_00325_DS_
                                           ;	.line	365; "MC32P7351.c"	if(B_G_A)
00048c   e063     jbset   0x63, 0          	JBSET	_B_SMG_B,0
00048d   a491     goto    0x491            	GOTO	_00268_DS_
                                           ;	.line	367; "MC32P7351.c"	P03OE=1;
00048e   c791     bset    0x191, 0x3       	BSET	_OEP0bits,3
                                           ;	.line	368; "MC32P7351.c"	LED_SMG2=0;
00048f   d790     bclr    0x190, 0x3       	BCLR	_IOP0bits,3
                                           ;	.line	369; "MC32P7351.c"	B_HAVE_LED=1;
000490   c660     bset    0x60, 0x3        	BSET	_flag2,3
                                           _00268_DS_
                                           ;	.line	371; "MC32P7351.c"	if(B_G_C)
000491   e463     jbset   0x63, 0x2        	JBSET	_B_SMG_B,2
000492   a496     goto    0x496            	GOTO	_00270_DS_
                                           ;	.line	373; "MC32P7351.c"	P02OE=1;
000493   c591     bset    0x191, 0x2       	BSET	_OEP0bits,2
                                           ;	.line	374; "MC32P7351.c"	LED_SMG3=0;
000494   d590     bclr    0x190, 0x2       	BCLR	_IOP0bits,2
                                           ;	.line	375; "MC32P7351.c"	B_HAVE_LED=1;
000495   c660     bset    0x60, 0x3        	BSET	_flag2,3
                                           _00270_DS_
                                           ;	.line	377; "MC32P7351.c"	if(B_G_E)
000496   e863     jbset   0x63, 0x4        	JBSET	_B_SMG_B,4
000497   a49b     goto    0x49b            	GOTO	_00272_DS_
                                           ;	.line	379; "MC32P7351.c"	P01OE=1;
000498   c391     bset    0x191, 0x1       	BSET	_OEP0bits,1
                                           ;	.line	380; "MC32P7351.c"	LED_SMG4=0;
000499   d390     bclr    0x190, 0x1       	BCLR	_IOP0bits,1
                                           ;	.line	381; "MC32P7351.c"	B_HAVE_LED=1;
00049a   c660     bset    0x60, 0x3        	BSET	_flag2,3
                                           _00272_DS_
                                           ;	.line	385; "MC32P7351.c"	if(B_HAVE_LED)
00049b   e660     jbset   0x60, 0x3        	JBSET	_flag2,3
00049c   a50e     goto    0x50e            	GOTO	_00327_DS_
                                           ;	.line	387; "MC32P7351.c"	P15OE=1;
00049d   cb95     bset    0x195, 0x5       	BSET	_OEP1bits,5
                                           ;	.line	388; "MC32P7351.c"	LED_SMG1=1;
00049e   cb94     bset    0x194, 0x5       	BSET	_IOP1bits,5
00049f   a50e     goto    0x50e            	GOTO	_00327_DS_
                                           _00325_DS_
                                           ;	.line	392; "MC32P7351.c"	else if(LED_MODE==1)
0004a0   5877     movar   0x77             	MOVAR	_LED_MODE
0004a1   3901     xorai   0x1              	XORAI	0x01
0004a2   e587     jbset   0x187, 0x2       	JBSET	PFLAG,2
0004a3   a4bd     goto    0x4bd            	GOTO	_00322_DS_
                                           ;	.line	394; "MC32P7351.c"	if(B_C_1)
0004a4   e264     jbset   0x64, 0x1        	JBSET	_B_SMG_C,1
0004a5   a4a9     goto    0x4a9            	GOTO	_00276_DS_
                                           ;	.line	396; "MC32P7351.c"	P01OE=1;
0004a6   c391     bset    0x191, 0x1       	BSET	_OEP0bits,1
                                           ;	.line	397; "MC32P7351.c"	LED_SMG4=0;
0004a7   d390     bclr    0x190, 0x1       	BCLR	_IOP0bits,1
                                           ;	.line	398; "MC32P7351.c"	B_HAVE_LED=1;
0004a8   c660     bset    0x60, 0x3        	BSET	_flag2,3
                                           _00276_DS_
                                           ;	.line	402; "MC32P7351.c"	if(B_S_A)
0004a9   e062     jbset   0x62, 0          	JBSET	_B_SMG_S,0
0004aa   a4ae     goto    0x4ae            	GOTO	_00278_DS_
                                           ;	.line	404; "MC32P7351.c"	P02OE=1;
0004ab   c591     bset    0x191, 0x2       	BSET	_OEP0bits,2
                                           ;	.line	405; "MC32P7351.c"	LED_SMG3=0;
0004ac   d590     bclr    0x190, 0x2       	BCLR	_IOP0bits,2
                                           ;	.line	406; "MC32P7351.c"	B_HAVE_LED=1;
0004ad   c660     bset    0x60, 0x3        	BSET	_flag2,3
                                           _00278_DS_
                                           ;	.line	410; "MC32P7351.c"	if(B_G_B)
0004ae   e263     jbset   0x63, 0x1        	JBSET	_B_SMG_B,1
0004af   a4b3     goto    0x4b3            	GOTO	_00280_DS_
                                           ;	.line	412; "MC32P7351.c"	P15OE=1;
0004b0   cb95     bset    0x195, 0x5       	BSET	_OEP1bits,5
                                           ;	.line	413; "MC32P7351.c"	LED_SMG1=0;
0004b1   db94     bclr    0x194, 0x5       	BCLR	_IOP1bits,5
                                           ;	.line	414; "MC32P7351.c"	B_HAVE_LED=1;
0004b2   c660     bset    0x60, 0x3        	BSET	_flag2,3
                                           _00280_DS_
                                           ;	.line	418; "MC32P7351.c"	if(B_K_DL)
0004b3   e864     jbset   0x64, 0x4        	JBSET	_B_SMG_C,4
0004b4   a4b8     goto    0x4b8            	GOTO	_00282_DS_
                                           ;	.line	420; "MC32P7351.c"	P00OE=1;
0004b5   c191     bset    0x191, 0         	BSET	_OEP0bits,0
                                           ;	.line	421; "MC32P7351.c"	LED_SMG5=0;
0004b6   d190     bclr    0x190, 0         	BCLR	_IOP0bits,0
                                           ;	.line	422; "MC32P7351.c"	B_HAVE_LED=1;
0004b7   c660     bset    0x60, 0x3        	BSET	_flag2,3
                                           _00282_DS_
                                           ;	.line	425; "MC32P7351.c"	if(B_HAVE_LED)
0004b8   e660     jbset   0x60, 0x3        	JBSET	_flag2,3
0004b9   a50e     goto    0x50e            	GOTO	_00327_DS_
                                           ;	.line	427; "MC32P7351.c"	P03OE=1;
0004ba   c791     bset    0x191, 0x3       	BSET	_OEP0bits,3
                                           ;	.line	428; "MC32P7351.c"	LED_SMG2=1;
0004bb   c790     bset    0x190, 0x3       	BSET	_IOP0bits,3
0004bc   a50e     goto    0x50e            	GOTO	_00327_DS_
                                           _00322_DS_
                                           ;	.line	432; "MC32P7351.c"	else if(LED_MODE==2)
0004bd   5877     movar   0x77             	MOVAR	_LED_MODE
0004be   3902     xorai   0x2              	XORAI	0x02
0004bf   e587     jbset   0x187, 0x2       	JBSET	PFLAG,2
0004c0   a4da     goto    0x4da            	GOTO	_00319_DS_
                                           ;	.line	434; "MC32P7351.c"	if(B_B_1)
0004c1   e064     jbset   0x64, 0          	JBSET	_B_SMG_C,0
0004c2   a4c6     goto    0x4c6            	GOTO	_00286_DS_
                                           ;	.line	436; "MC32P7351.c"	P01OE=1;
0004c3   c391     bset    0x191, 0x1       	BSET	_OEP0bits,1
                                           ;	.line	437; "MC32P7351.c"	LED_SMG4=0;
0004c4   d390     bclr    0x190, 0x1       	BCLR	_IOP0bits,1
                                           ;	.line	438; "MC32P7351.c"	B_HAVE_LED=1;
0004c5   c660     bset    0x60, 0x3        	BSET	_flag2,3
                                           _00286_DS_
                                           ;	.line	442; "MC32P7351.c"	if(B_S_B)
0004c6   e262     jbset   0x62, 0x1        	JBSET	_B_SMG_S,1
0004c7   a4cb     goto    0x4cb            	GOTO	_00288_DS_
                                           ;	.line	444; "MC32P7351.c"	P03OE=1;
0004c8   c791     bset    0x191, 0x3       	BSET	_OEP0bits,3
                                           ;	.line	445; "MC32P7351.c"	LED_SMG2=0;
0004c9   d790     bclr    0x190, 0x3       	BCLR	_IOP0bits,3
                                           ;	.line	446; "MC32P7351.c"	B_HAVE_LED=1;
0004ca   c660     bset    0x60, 0x3        	BSET	_flag2,3
                                           _00288_DS_
                                           ;	.line	450; "MC32P7351.c"	if(B_G_D)
0004cb   e663     jbset   0x63, 0x3        	JBSET	_B_SMG_B,3
0004cc   a4d0     goto    0x4d0            	GOTO	_00290_DS_
                                           ;	.line	452; "MC32P7351.c"	P15OE=1;
0004cd   cb95     bset    0x195, 0x5       	BSET	_OEP1bits,5
                                           ;	.line	453; "MC32P7351.c"	LED_SMG1=0;
0004ce   db94     bclr    0x194, 0x5       	BCLR	_IOP1bits,5
                                           ;	.line	454; "MC32P7351.c"	B_HAVE_LED=1;
0004cf   c660     bset    0x60, 0x3        	BSET	_flag2,3
                                           _00290_DS_
                                           ;	.line	459; "MC32P7351.c"	if(B_K_CHARGE)
0004d0   e664     jbset   0x64, 0x3        	JBSET	_B_SMG_C,3
0004d1   a4d5     goto    0x4d5            	GOTO	_00292_DS_
                                           ;	.line	461; "MC32P7351.c"	P00OE=1;
0004d2   c191     bset    0x191, 0         	BSET	_OEP0bits,0
                                           ;	.line	462; "MC32P7351.c"	LED_SMG5=0;
0004d3   d190     bclr    0x190, 0         	BCLR	_IOP0bits,0
                                           ;	.line	463; "MC32P7351.c"	B_HAVE_LED=1;
0004d4   c660     bset    0x60, 0x3        	BSET	_flag2,3
                                           _00292_DS_
                                           ;	.line	467; "MC32P7351.c"	if(B_HAVE_LED)
0004d5   e660     jbset   0x60, 0x3        	JBSET	_flag2,3
0004d6   a50e     goto    0x50e            	GOTO	_00327_DS_
                                           ;	.line	469; "MC32P7351.c"	P02OE=1;
0004d7   c591     bset    0x191, 0x2       	BSET	_OEP0bits,2
                                           ;	.line	470; "MC32P7351.c"	LED_SMG3=1;
0004d8   c590     bset    0x190, 0x2       	BSET	_IOP0bits,2
0004d9   a50e     goto    0x50e            	GOTO	_00327_DS_
                                           _00319_DS_
                                           ;	.line	474; "MC32P7351.c"	else if(LED_MODE==3)
0004da   5877     movar   0x77             	MOVAR	_LED_MODE
0004db   3903     xorai   0x3              	XORAI	0x03
0004dc   e587     jbset   0x187, 0x2       	JBSET	PFLAG,2
0004dd   a4f2     goto    0x4f2            	GOTO	_00316_DS_
                                           ;	.line	476; "MC32P7351.c"	if(B_S_C)
0004de   e462     jbset   0x62, 0x2        	JBSET	_B_SMG_S,2
0004df   a4e3     goto    0x4e3            	GOTO	_00296_DS_
                                           ;	.line	478; "MC32P7351.c"	P02OE=1;
0004e0   c591     bset    0x191, 0x2       	BSET	_OEP0bits,2
                                           ;	.line	479; "MC32P7351.c"	LED_SMG3=0;
0004e1   d590     bclr    0x190, 0x2       	BCLR	_IOP0bits,2
                                           ;	.line	480; "MC32P7351.c"	B_HAVE_LED=1;
0004e2   c660     bset    0x60, 0x3        	BSET	_flag2,3
                                           _00296_DS_
                                           ;	.line	484; "MC32P7351.c"	if(B_S_D)
0004e3   e662     jbset   0x62, 0x3        	JBSET	_B_SMG_S,3
0004e4   a4e8     goto    0x4e8            	GOTO	_00298_DS_
                                           ;	.line	486; "MC32P7351.c"	P03OE=1;
0004e5   c791     bset    0x191, 0x3       	BSET	_OEP0bits,3
                                           ;	.line	487; "MC32P7351.c"	LED_SMG2=0;
0004e6   d790     bclr    0x190, 0x3       	BCLR	_IOP0bits,3
                                           ;	.line	488; "MC32P7351.c"	B_HAVE_LED=1;
0004e7   c660     bset    0x60, 0x3        	BSET	_flag2,3
                                           _00298_DS_
                                           ;	.line	492; "MC32P7351.c"	if(B_G_F)
0004e8   ea63     jbset   0x63, 0x5        	JBSET	_B_SMG_B,5
0004e9   a4ed     goto    0x4ed            	GOTO	_00300_DS_
                                           ;	.line	494; "MC32P7351.c"	P15OE=1;
0004ea   cb95     bset    0x195, 0x5       	BSET	_OEP1bits,5
                                           ;	.line	495; "MC32P7351.c"	LED_SMG1=0;
0004eb   db94     bclr    0x194, 0x5       	BCLR	_IOP1bits,5
                                           ;	.line	496; "MC32P7351.c"	B_HAVE_LED=1;
0004ec   c660     bset    0x60, 0x3        	BSET	_flag2,3
                                           _00300_DS_
                                           ;	.line	501; "MC32P7351.c"	if(B_HAVE_LED)
0004ed   e660     jbset   0x60, 0x3        	JBSET	_flag2,3
0004ee   a50e     goto    0x50e            	GOTO	_00327_DS_
                                           ;	.line	503; "MC32P7351.c"	P01OE=1;
0004ef   c391     bset    0x191, 0x1       	BSET	_OEP0bits,1
                                           ;	.line	504; "MC32P7351.c"	LED_SMG4=1;
0004f0   c390     bset    0x190, 0x1       	BSET	_IOP0bits,1
0004f1   a50e     goto    0x50e            	GOTO	_00327_DS_
                                           _00316_DS_
                                           ;	.line	508; "MC32P7351.c"	else if(LED_MODE==4)
0004f2   5877     movar   0x77             	MOVAR	_LED_MODE
0004f3   3904     xorai   0x4              	XORAI	0x04
0004f4   e587     jbset   0x187, 0x2       	JBSET	PFLAG,2
0004f5   a50e     goto    0x50e            	GOTO	_00327_DS_
                                           ;	.line	510; "MC32P7351.c"	if(B_S_E)
0004f6   e862     jbset   0x62, 0x4        	JBSET	_B_SMG_S,4
0004f7   a4fb     goto    0x4fb            	GOTO	_00304_DS_
                                           ;	.line	512; "MC32P7351.c"	P03OE=1;
0004f8   c791     bset    0x191, 0x3       	BSET	_OEP0bits,3
                                           ;	.line	513; "MC32P7351.c"	LED_SMG2=0;
0004f9   d790     bclr    0x190, 0x3       	BCLR	_IOP0bits,3
                                           ;	.line	514; "MC32P7351.c"	B_HAVE_LED=1;
0004fa   c660     bset    0x60, 0x3        	BSET	_flag2,3
                                           _00304_DS_
                                           ;	.line	518; "MC32P7351.c"	if(B_S_F)
0004fb   ea62     jbset   0x62, 0x5        	JBSET	_B_SMG_S,5
0004fc   a500     goto    0x500            	GOTO	_00306_DS_
                                           ;	.line	520; "MC32P7351.c"	P02OE=1;
0004fd   c591     bset    0x191, 0x2       	BSET	_OEP0bits,2
                                           ;	.line	521; "MC32P7351.c"	LED_SMG3=0;
0004fe   d590     bclr    0x190, 0x2       	BCLR	_IOP0bits,2
                                           ;	.line	522; "MC32P7351.c"	B_HAVE_LED=1;
0004ff   c660     bset    0x60, 0x3        	BSET	_flag2,3
                                           _00306_DS_
                                           ;	.line	526; "MC32P7351.c"	if(B_S_G)
000500   ec62     jbset   0x62, 0x6        	JBSET	_B_SMG_S,6
000501   a505     goto    0x505            	GOTO	_00308_DS_
                                           ;	.line	528; "MC32P7351.c"	P01OE=1;
000502   c391     bset    0x191, 0x1       	BSET	_OEP0bits,1
                                           ;	.line	529; "MC32P7351.c"	LED_SMG4=0;
000503   d390     bclr    0x190, 0x1       	BCLR	_IOP0bits,1
                                           ;	.line	530; "MC32P7351.c"	B_HAVE_LED=1;
000504   c660     bset    0x60, 0x3        	BSET	_flag2,3
                                           _00308_DS_
                                           ;	.line	534; "MC32P7351.c"	if(B_G_G)
000505   ec63     jbset   0x63, 0x6        	JBSET	_B_SMG_B,6
000506   a50a     goto    0x50a            	GOTO	_00310_DS_
                                           ;	.line	536; "MC32P7351.c"	P15OE=1;
000507   cb95     bset    0x195, 0x5       	BSET	_OEP1bits,5
                                           ;	.line	537; "MC32P7351.c"	LED_SMG1=0;
000508   db94     bclr    0x194, 0x5       	BCLR	_IOP1bits,5
                                           ;	.line	538; "MC32P7351.c"	B_HAVE_LED=1;
000509   c660     bset    0x60, 0x3        	BSET	_flag2,3
                                           _00310_DS_
                                           ;	.line	542; "MC32P7351.c"	if(B_HAVE_LED)
00050a   e660     jbset   0x60, 0x3        	JBSET	_flag2,3
00050b   a50e     goto    0x50e            	GOTO	_00327_DS_
                                           ;	.line	544; "MC32P7351.c"	P00OE=1;
00050c   c191     bset    0x191, 0         	BSET	_OEP0bits,0
                                           ;	.line	545; "MC32P7351.c"	LED_SMG5=1;
00050d   c190     bset    0x190, 0         	BSET	_IOP0bits,0
                                           _00327_DS_
                                           ;	.line	549; "MC32P7351.c"	}
00050e   000c     return                   	RETURN	
                                           ; exit point of _SCAN_SMG_CTR
                                           
                                           ;***
                                           ;  pBlock Stats: dbName = C
                                           ;***
                                           ;entry:  _SCAN_FUNTION_CTR	;Function start
                                           ; 2 exit points
                                           ;has an exit
                                           ;functions called:
                                           ;   _TIMER0_INT_Init
                                           ;   _TIMER0_INT_Init
                                           ;   _TIMER0_INT_Init
                                           ;   _TIMER0_INT_Init
                                           ;; Starting pCode block
                                           _SCAN_FUNTION_CTR	;Function start
                                           ; 2 exit points
                                           ;	.line	292; "MC32P7351.c"	if(WORK_ON)
00050f   e461     jbset   0x61, 0x2        	JBSET	_KEY_FLAG,2
000510   a557     goto    0x557            	GOTO	_00258_DS_
                                           ;	.line	294; "MC32P7351.c"	if(MOTO_MODE==0)
000511   3c00     movai   0                	MOVAI	0x00
000512   5c68     orar    0x68             	ORAR	_MOTO_MODE
000513   e587     jbset   0x187, 0x2       	JBSET	PFLAG,2
000514   a518     goto    0x518            	GOTO	_00255_DS_
                                           ;	.line	296; "MC32P7351.c"	TIMER0_INT_Init();
000515   85fa     call    0x5fa            	CALL	_TIMER0_INT_Init
                                           ;	.line	297; "MC32P7351.c"	MOTO=0;
000516   df94     bclr    0x194, 0x7       	BCLR	_IOP1bits,7
000517   a55c     goto    0x55c            	GOTO	_00260_DS_
                                           _00255_DS_
                                           ;	.line	301; "MC32P7351.c"	MOTO=1;
000518   cf94     bset    0x194, 0x7       	BSET	_IOP1bits,7
                                           ;	.line	302; "MC32P7351.c"	if(!PWM_INONE)
000519   fc60     jbclr   0x60, 0x6        	JBCLR	_flag2,6
00051a   a51e     goto    0x51e            	GOTO	_00239_DS_
                                           ;	.line	304; "MC32P7351.c"	PWM_INONE=1;
00051b   cc60     bset    0x60, 0x6        	BSET	_flag2,6
                                           ;	.line	305; "MC32P7351.c"	T0EN   = 1;
00051c   cf98     bset    0x198, 0x7       	BSET	_T0CRbits,7
                                           ;	.line	306; "MC32P7351.c"	PWM0EC = 1;
00051d   cd98     bset    0x198, 0x6       	BSET	_T0CRbits,6
                                           _00239_DS_
                                           ;	.line	309; "MC32P7351.c"	if(MOTO_MODE==1)			//0.45V
00051e   5868     movar   0x68             	MOVAR	_MOTO_MODE
00051f   3901     xorai   0x1              	XORAI	0x01
000520   e587     jbset   0x187, 0x2       	JBSET	PFLAG,2
000521   a529     goto    0x529            	GOTO	_00252_DS_
                                           ;	.line	311; "MC32P7351.c"	BUFF_OVER_ALL2=922;
000522   3c9a     movai   0x9a             	MOVAI	0x9a
000523   5653     movra   0x53             	MOVRA	_BUFF_OVER_ALL2
000524   3c03     movai   0x3              	MOVAI	0x03
000525   5654     movra   0x54             	MOVRA	(_BUFF_OVER_ALL2 + 1)
                                           ;	.line	312; "MC32P7351.c"	BUFF_M_CNT=2;
000526   3c02     movai   0x2              	MOVAI	0x02
000527   567d     movra   0x7d             	MOVRA	_BUFF_M_CNT
000528   a554     goto    0x554            	GOTO	_00253_DS_
                                           _00252_DS_
                                           ;	.line	314; "MC32P7351.c"	else if(MOTO_MODE==2)		//0.54V
000529   5868     movar   0x68             	MOVAR	_MOTO_MODE
00052a   3902     xorai   0x2              	XORAI	0x02
00052b   e587     jbset   0x187, 0x2       	JBSET	PFLAG,2
00052c   a534     goto    0x534            	GOTO	_00249_DS_
                                           ;	.line	316; "MC32P7351.c"	BUFF_OVER_ALL2=1106;
00052d   3c52     movai   0x52             	MOVAI	0x52
00052e   5653     movra   0x53             	MOVRA	_BUFF_OVER_ALL2
00052f   3c04     movai   0x4              	MOVAI	0x04
000530   5654     movra   0x54             	MOVRA	(_BUFF_OVER_ALL2 + 1)
                                           ;	.line	317; "MC32P7351.c"	BUFF_M_CNT=3;
000531   3c03     movai   0x3              	MOVAI	0x03
000532   567d     movra   0x7d             	MOVRA	_BUFF_M_CNT
000533   a554     goto    0x554            	GOTO	_00253_DS_
                                           _00249_DS_
                                           ;	.line	319; "MC32P7351.c"	else if(MOTO_MODE==3)		//0.63V
000534   5868     movar   0x68             	MOVAR	_MOTO_MODE
000535   3903     xorai   0x3              	XORAI	0x03
000536   e587     jbset   0x187, 0x2       	JBSET	PFLAG,2
000537   a53f     goto    0x53f            	GOTO	_00246_DS_
                                           ;	.line	321; "MC32P7351.c"	BUFF_OVER_ALL2=1290;
000538   3c0a     movai   0xa              	MOVAI	0x0a
000539   5653     movra   0x53             	MOVRA	_BUFF_OVER_ALL2
00053a   3c05     movai   0x5              	MOVAI	0x05
00053b   5654     movra   0x54             	MOVRA	(_BUFF_OVER_ALL2 + 1)
                                           ;	.line	322; "MC32P7351.c"	BUFF_M_CNT=3;
00053c   3c03     movai   0x3              	MOVAI	0x03
00053d   567d     movra   0x7d             	MOVRA	_BUFF_M_CNT
00053e   a554     goto    0x554            	GOTO	_00253_DS_
                                           _00246_DS_
                                           ;	.line	324; "MC32P7351.c"	else if(MOTO_MODE==4)		//0.72V
00053f   5868     movar   0x68             	MOVAR	_MOTO_MODE
000540   3904     xorai   0x4              	XORAI	0x04
000541   e587     jbset   0x187, 0x2       	JBSET	PFLAG,2
000542   a54a     goto    0x54a            	GOTO	_00243_DS_
                                           ;	.line	326; "MC32P7351.c"	BUFF_OVER_ALL2=1475;
000543   3cc3     movai   0xc3             	MOVAI	0xc3
000544   5653     movra   0x53             	MOVRA	_BUFF_OVER_ALL2
000545   3c05     movai   0x5              	MOVAI	0x05
000546   5654     movra   0x54             	MOVRA	(_BUFF_OVER_ALL2 + 1)
                                           ;	.line	327; "MC32P7351.c"	BUFF_M_CNT=4;
000547   3c04     movai   0x4              	MOVAI	0x04
000548   567d     movra   0x7d             	MOVRA	_BUFF_M_CNT
000549   a554     goto    0x554            	GOTO	_00253_DS_
                                           _00243_DS_
                                           ;	.line	329; "MC32P7351.c"	else if(MOTO_MODE==5)		//0.81V
00054a   5868     movar   0x68             	MOVAR	_MOTO_MODE
00054b   3905     xorai   0x5              	XORAI	0x05
00054c   e587     jbset   0x187, 0x2       	JBSET	PFLAG,2
00054d   a554     goto    0x554            	GOTO	_00253_DS_
                                           ;	.line	331; "MC32P7351.c"	BUFF_OVER_ALL2=1679;
00054e   3c8f     movai   0x8f             	MOVAI	0x8f
00054f   5653     movra   0x53             	MOVRA	_BUFF_OVER_ALL2
000550   3c06     movai   0x6              	MOVAI	0x06
000551   5654     movra   0x54             	MOVRA	(_BUFF_OVER_ALL2 + 1)
                                           ;	.line	332; "MC32P7351.c"	BUFF_M_CNT=5;
000552   3c05     movai   0x5              	MOVAI	0x05
000553   567d     movra   0x7d             	MOVRA	_BUFF_M_CNT
                                           _00253_DS_
                                           ;	.line	334; "MC32P7351.c"	T0DATA = BUFF_MOTO;
000554   5869     movar   0x69             	MOVAR	_BUFF_MOTO
000555   579b     movra   0x19b            	MOVRA	_T0DATA
000556   a55c     goto    0x55c            	GOTO	_00260_DS_
                                           _00258_DS_
                                           ;	.line	339; "MC32P7351.c"	TIMER0_INT_Init();
000557   85fa     call    0x5fa            	CALL	_TIMER0_INT_Init
                                           ;	.line	340; "MC32P7351.c"	MOTO=0;
000558   df94     bclr    0x194, 0x7       	BCLR	_IOP1bits,7
                                           ;	.line	341; "MC32P7351.c"	MOTO_MODE=0;
000559   7668     clrr    0x68             	CLRR	_MOTO_MODE
                                           ;	.line	342; "MC32P7351.c"	MOTO_DIS_CNT=0;
00055a   763f     clrr    0x3f             	CLRR	_MOTO_DIS_CNT
00055b   7640     clrr    0x40             	CLRR	(_MOTO_DIS_CNT + 1)
                                           _00260_DS_
                                           ;	.line	344; "MC32P7351.c"	}
00055c   000c     return                   	RETURN	
                                           ; exit point of _SCAN_FUNTION_CTR
                                           
                                           ;***
                                           ;  pBlock Stats: dbName = C
                                           ;***
                                           ;entry:  _SCAN_CHARGE_CTR	;Function start
                                           ; 2 exit points
                                           ;has an exit
                                           ;1 compiler assigned register :
                                           ;   r0x104E
                                           ;; Starting pCode block
                                           _SCAN_CHARGE_CTR	;Function start
                                           ; 2 exit points
                                           ;	.line	229; "MC32P7351.c"	if(IN_5V&&UP_POWER_F&&B_UP_POWER_CK)
00055d   e394     jbset   0x194, 0x1       	JBSET	_IOP1bits,1
00055e   a58d     goto    0x58d            	GOTO	_00229_DS_
00055f   ea61     jbset   0x61, 0x5        	JBSET	_KEY_FLAG,5
000560   a58d     goto    0x58d            	GOTO	_00229_DS_
000561   e65f     jbset   0x5f, 0x3        	JBSET	_flag1,3
000562   a58d     goto    0x58d            	GOTO	_00229_DS_
                                           ;	.line	231; "MC32P7351.c"	if(!CHARGE_EN)
000563   f45f     jbclr   0x5f, 0x2        	JBCLR	_flag1,2
000564   a56e     goto    0x56e            	GOTO	_00222_DS_
                                           ;	.line	233; "MC32P7351.c"	CHARGE_CNT1++;
000565   6673     incr    0x73             	INCR	_CHARGE_CNT1
                                           ;;swapping arguments (AOP_TYPEs 1/3)
                                           ;;unsigned compare: left >= lit(0xC8=200), size=1
                                           ;	.line	234; "MC32P7351.c"	if(CHARGE_CNT1>199)
000566   3cc8     movai   0xc8             	MOVAI	0xc8
000567   4873     rsubar  0x73             	RSUBAR	_CHARGE_CNT1
000568   e187     jbset   0x187, 0         	JBSET	PFLAG,0
000569   a59a     goto    0x59a            	GOTO	_00233_DS_
                                           ;;genSkipc:3291: created from rifx:013B5EFC
                                           ;	.line	236; "MC32P7351.c"	CHARGE_CNT1=0;
00056a   7673     clrr    0x73             	CLRR	_CHARGE_CNT1
                                           ;	.line	237; "MC32P7351.c"	CHARGE_EN=1;
00056b   c45f     bset    0x5f, 0x2        	BSET	_flag1,2
                                           ;	.line	238; "MC32P7351.c"	CHARGE_FULL=0;
00056c   dc5f     bclr    0x5f, 0x6        	BCLR	_flag1,6
00056d   a59a     goto    0x59a            	GOTO	_00233_DS_
                                           _00222_DS_
                                           ;	.line	243; "MC32P7351.c"	if(IN_CHARGE==1)
00056e   7608     clrr    0x8              	CLRR	r0x104E
00056f   f594     jbclr   0x194, 0x2       	JBCLR	_IOP1bits,2
000570   6608     incr    0x8              	INCR	r0x104E
000571   5808     movar   0x8              	MOVAR	r0x104E
000572   3901     xorai   0x1              	XORAI	0x01
000573   e587     jbset   0x187, 0x2       	JBSET	PFLAG,2
000574   a581     goto    0x581            	GOTO	_00219_DS_
                                           ;	.line	245; "MC32P7351.c"	CHARGE_CNT2=0;
000575   7674     clrr    0x74             	CLRR	_CHARGE_CNT2
                                           ;	.line	246; "MC32P7351.c"	CHARGE_CNT1++;
000576   6673     incr    0x73             	INCR	_CHARGE_CNT1
                                           ;;swapping arguments (AOP_TYPEs 1/3)
                                           ;;unsigned compare: left >= lit(0xC8=200), size=1
                                           ;	.line	247; "MC32P7351.c"	if(CHARGE_CNT1>199)
000577   3cc8     movai   0xc8             	MOVAI	0xc8
000578   4873     rsubar  0x73             	RSUBAR	_CHARGE_CNT1
000579   e187     jbset   0x187, 0         	JBSET	PFLAG,0
00057a   a59a     goto    0x59a            	GOTO	_00233_DS_
                                           ;;genSkipc:3291: created from rifx:013B5EFC
                                           ;	.line	249; "MC32P7351.c"	CHARGE_CNT1=0;
00057b   7673     clrr    0x73             	CLRR	_CHARGE_CNT1
                                           ;	.line	250; "MC32P7351.c"	CHARGE_EN=1;
00057c   c45f     bset    0x5f, 0x2        	BSET	_flag1,2
                                           ;	.line	251; "MC32P7351.c"	CHARGE_FULL=1;
00057d   cc5f     bset    0x5f, 0x6        	BSET	_flag1,6
                                           ;	.line	252; "MC32P7351.c"	B_LOW_POWER_F=0;
00057e   d060     bclr    0x60, 0          	BCLR	_flag2,0
                                           ;	.line	253; "MC32P7351.c"	B_LOW_P_DIS_F=0;
00057f   d260     bclr    0x60, 0x1        	BCLR	_flag2,1
000580   a59a     goto    0x59a            	GOTO	_00233_DS_
                                           _00219_DS_
                                           ;	.line	258; "MC32P7351.c"	CHARGE_CNT1=0;
000581   7673     clrr    0x73             	CLRR	_CHARGE_CNT1
                                           ;	.line	259; "MC32P7351.c"	CHARGE_CNT2++;
000582   6674     incr    0x74             	INCR	_CHARGE_CNT2
                                           ;;swapping arguments (AOP_TYPEs 1/3)
                                           ;;unsigned compare: left >= lit(0xC8=200), size=1
                                           ;	.line	260; "MC32P7351.c"	if(CHARGE_CNT2>199)
000583   3cc8     movai   0xc8             	MOVAI	0xc8
000584   4874     rsubar  0x74             	RSUBAR	_CHARGE_CNT2
000585   e187     jbset   0x187, 0         	JBSET	PFLAG,0
000586   a59a     goto    0x59a            	GOTO	_00233_DS_
                                           ;;genSkipc:3291: created from rifx:013B5EFC
                                           ;	.line	262; "MC32P7351.c"	CHARGE_CNT2=0;
000587   7674     clrr    0x74             	CLRR	_CHARGE_CNT2
                                           ;	.line	263; "MC32P7351.c"	CHARGE_EN=1;
000588   c45f     bset    0x5f, 0x2        	BSET	_flag1,2
                                           ;	.line	264; "MC32P7351.c"	CHARGE_FULL=0;
000589   dc5f     bclr    0x5f, 0x6        	BCLR	_flag1,6
                                           ;	.line	265; "MC32P7351.c"	B_LOW_POWER_F=0;
00058a   d060     bclr    0x60, 0          	BCLR	_flag2,0
                                           ;	.line	266; "MC32P7351.c"	B_LOW_P_DIS_F=0;
00058b   d260     bclr    0x60, 0x1        	BCLR	_flag2,1
00058c   a59a     goto    0x59a            	GOTO	_00233_DS_
                                           _00229_DS_
                                           ;	.line	273; "MC32P7351.c"	CHARGE_CNT1=0;
00058d   7673     clrr    0x73             	CLRR	_CHARGE_CNT1
                                           ;	.line	274; "MC32P7351.c"	CHARGE_CNT2=0;
00058e   7674     clrr    0x74             	CLRR	_CHARGE_CNT2
                                           ;	.line	275; "MC32P7351.c"	CHARGE_CNT3++;
00058f   6675     incr    0x75             	INCR	_CHARGE_CNT3
                                           ;;swapping arguments (AOP_TYPEs 1/3)
                                           ;;unsigned compare: left >= lit(0xC8=200), size=1
                                           ;	.line	276; "MC32P7351.c"	if(CHARGE_CNT3>199)
000590   3cc8     movai   0xc8             	MOVAI	0xc8
000591   4875     rsubar  0x75             	RSUBAR	_CHARGE_CNT3
000592   e187     jbset   0x187, 0         	JBSET	PFLAG,0
000593   a59a     goto    0x59a            	GOTO	_00233_DS_
                                           ;;genSkipc:3291: created from rifx:013B5EFC
                                           ;	.line	278; "MC32P7351.c"	CHARGE_CNT3=0;
000594   7675     clrr    0x75             	CLRR	_CHARGE_CNT3
                                           ;	.line	279; "MC32P7351.c"	if(CHARGE_EN)
000595   e45f     jbset   0x5f, 0x2        	JBSET	_flag1,2
000596   a59a     goto    0x59a            	GOTO	_00233_DS_
                                           ;	.line	281; "MC32P7351.c"	CHARGE_EN=0;
000597   d45f     bclr    0x5f, 0x2        	BCLR	_flag1,2
                                           ;	.line	282; "MC32P7351.c"	CHARGE_FULL=0;
000598   dc5f     bclr    0x5f, 0x6        	BCLR	_flag1,6
                                           ;	.line	283; "MC32P7351.c"	B_LOW_POWER_F=0;
000599   d060     bclr    0x60, 0          	BCLR	_flag2,0
                                           _00233_DS_
                                           ;	.line	287; "MC32P7351.c"	}
00059a   000c     return                   	RETURN	
                                           ; exit point of _SCAN_CHARGE_CTR
                                           
                                           ;***
                                           ;  pBlock Stats: dbName = C
                                           ;***
                                           ;entry:  _SCAN_KEY_CTR	;Function start
                                           ; 2 exit points
                                           ;has an exit
                                           ;; Starting pCode block
                                           _SCAN_KEY_CTR	;Function start
                                           ; 2 exit points
                                           ;	.line	157; "MC32P7351.c"	if((!KEY)&&UP_POWER_F&&B_UP_POWER_CK&&(!B_LOW_POWER_F))
00059b   f794     jbclr   0x194, 0x3       	JBCLR	_IOP1bits,3
00059c   a5c0     goto    0x5c0            	GOTO	_00155_DS_
00059d   ea61     jbset   0x61, 0x5        	JBSET	_KEY_FLAG,5
00059e   a5c0     goto    0x5c0            	GOTO	_00155_DS_
00059f   e65f     jbset   0x5f, 0x3        	JBSET	_flag1,3
0005a0   a5c0     goto    0x5c0            	GOTO	_00155_DS_
0005a1   f060     jbclr   0x60, 0          	JBCLR	_flag2,0
0005a2   a5c0     goto    0x5c0            	GOTO	_00155_DS_
                                           ;	.line	159; "MC32P7351.c"	KEY_CNT2=0;
0005a3   7667     clrr    0x67             	CLRR	_KEY_CNT2
                                           ;	.line	160; "MC32P7351.c"	if(!KEY_PRESS_L)
0005a4   f25f     jbclr   0x5f, 0x1        	JBCLR	_flag1,1
0005a5   a5de     goto    0x5de            	GOTO	_00160_DS_
                                           ;	.line	162; "MC32P7351.c"	KEY_CNT1++;
0005a6   663b     incr    0x3b             	INCR	_KEY_CNT1
0005a7   f587     jbclr   0x187, 0x2       	JBCLR	PFLAG,2
0005a8   663c     incr    0x3c             	INCR	(_KEY_CNT1 + 1)
                                           ;;swapping arguments (AOP_TYPEs 1/3)
                                           ;;unsigned compare: left >= lit(0x14=20), size=2
                                           ;	.line	163; "MC32P7351.c"	if(KEY_CNT1>19)
0005a9   3c00     movai   0                	MOVAI	0x00
0005aa   483c     rsubar  0x3c             	RSUBAR	(_KEY_CNT1 + 1)
0005ab   e587     jbset   0x187, 0x2       	JBSET	PFLAG,2
0005ac   a5af     goto    0x5af            	GOTO	_00206_DS_
0005ad   3c14     movai   0x14             	MOVAI	0x14
0005ae   483b     rsubar  0x3b             	RSUBAR	_KEY_CNT1
                                           _00206_DS_
0005af   e187     jbset   0x187, 0         	JBSET	PFLAG,0
0005b0   a5b2     goto    0x5b2            	GOTO	_00140_DS_
                                           ;;genSkipc:3291: created from rifx:013B5EFC
                                           ;	.line	165; "MC32P7351.c"	KEY_PRESS=1;
0005b1   c05f     bset    0x5f, 0          	BSET	_flag1,0
                                           ;;swapping arguments (AOP_TYPEs 1/3)
                                           ;;unsigned compare: left >= lit(0x3E8=1000), size=2
                                           _00140_DS_
                                           ;	.line	168; "MC32P7351.c"	if(KEY_CNT1>999)
0005b2   3c03     movai   0x3              	MOVAI	0x03
0005b3   483c     rsubar  0x3c             	RSUBAR	(_KEY_CNT1 + 1)
0005b4   e587     jbset   0x187, 0x2       	JBSET	PFLAG,2
0005b5   a5b8     goto    0x5b8            	GOTO	_00207_DS_
0005b6   3ce8     movai   0xe8             	MOVAI	0xe8
0005b7   483b     rsubar  0x3b             	RSUBAR	_KEY_CNT1
                                           _00207_DS_
0005b8   e187     jbset   0x187, 0         	JBSET	PFLAG,0
0005b9   a5de     goto    0x5de            	GOTO	_00160_DS_
                                           ;;genSkipc:3291: created from rifx:013B5EFC
                                           ;	.line	170; "MC32P7351.c"	KEY_CNT1=0;
0005ba   763b     clrr    0x3b             	CLRR	_KEY_CNT1
0005bb   763c     clrr    0x3c             	CLRR	(_KEY_CNT1 + 1)
                                           ;	.line	171; "MC32P7351.c"	KEY_PRESS_L=1;
0005bc   c25f     bset    0x5f, 0x1        	BSET	_flag1,1
                                           ;	.line	172; "MC32P7351.c"	WORK_ON=0;
0005bd   d461     bclr    0x61, 0x2        	BCLR	_KEY_FLAG,2
                                           ;	.line	174; "MC32P7351.c"	B_MOTO_LEVE_ZS=0;
0005be   da5f     bclr    0x5f, 0x5        	BCLR	_flag1,5
0005bf   a5de     goto    0x5de            	GOTO	_00160_DS_
                                           _00155_DS_
                                           ;	.line	185; "MC32P7351.c"	KEY_CNT1=0;
0005c0   763b     clrr    0x3b             	CLRR	_KEY_CNT1
0005c1   763c     clrr    0x3c             	CLRR	(_KEY_CNT1 + 1)
                                           ;	.line	186; "MC32P7351.c"	KEY_CNT2++;
0005c2   6667     incr    0x67             	INCR	_KEY_CNT2
                                           ;;swapping arguments (AOP_TYPEs 1/3)
                                           ;;unsigned compare: left >= lit(0x14=20), size=1
                                           ;	.line	187; "MC32P7351.c"	if(KEY_CNT2>19)
0005c3   3c14     movai   0x14             	MOVAI	0x14
0005c4   4867     rsubar  0x67             	RSUBAR	_KEY_CNT2
0005c5   e187     jbset   0x187, 0         	JBSET	PFLAG,0
0005c6   a5de     goto    0x5de            	GOTO	_00160_DS_
                                           ;;genSkipc:3291: created from rifx:013B5EFC
                                           ;	.line	189; "MC32P7351.c"	KEY_CNT2=0;
0005c7   7667     clrr    0x67             	CLRR	_KEY_CNT2
                                           ;	.line	190; "MC32P7351.c"	if(KEY_PRESS_L)
0005c8   e25f     jbset   0x5f, 0x1        	JBSET	_flag1,1
0005c9   a5cd     goto    0x5cd            	GOTO	_00150_DS_
                                           ;	.line	192; "MC32P7351.c"	KEY_PRESS_L=0;
0005ca   d25f     bclr    0x5f, 0x1        	BCLR	_flag1,1
                                           ;	.line	193; "MC32P7351.c"	KEY_PRESS=0;
0005cb   d05f     bclr    0x5f, 0          	BCLR	_flag1,0
0005cc   a5de     goto    0x5de            	GOTO	_00160_DS_
                                           _00150_DS_
                                           ;	.line	195; "MC32P7351.c"	else if(KEY_PRESS)
0005cd   e05f     jbset   0x5f, 0          	JBSET	_flag1,0
0005ce   a5de     goto    0x5de            	GOTO	_00160_DS_
                                           ;	.line	197; "MC32P7351.c"	KEY_PRESS=0;
0005cf   d05f     bclr    0x5f, 0          	BCLR	_flag1,0
                                           ;	.line	198; "MC32P7351.c"	WORK_ON=1;
0005d0   c461     bset    0x61, 0x2        	BSET	_KEY_FLAG,2
                                           ;	.line	203; "MC32P7351.c"	B_MOTO_LEVE_ZS=1;
0005d1   ca5f     bset    0x5f, 0x5        	BSET	_flag1,5
                                           ;	.line	204; "MC32P7351.c"	MOTO_DIS_CNT=0;
0005d2   763f     clrr    0x3f             	CLRR	_MOTO_DIS_CNT
0005d3   7640     clrr    0x40             	CLRR	(_MOTO_DIS_CNT + 1)
                                           ;	.line	205; "MC32P7351.c"	PWM_INONE=0;
0005d4   dc60     bclr    0x60, 0x6        	BCLR	_flag2,6
                                           ;	.line	207; "MC32P7351.c"	MOTO_CNT2=0;
0005d5   767b     clrr    0x7b             	CLRR	_MOTO_CNT2
                                           ;	.line	209; "MC32P7351.c"	MOTO_MODE++;
0005d6   6668     incr    0x68             	INCR	_MOTO_MODE
                                           ;;swapping arguments (AOP_TYPEs 1/3)
                                           ;;unsigned compare: left >= lit(0x6=6), size=1
                                           ;	.line	210; "MC32P7351.c"	if(MOTO_MODE>5)
0005d7   3c06     movai   0x6              	MOVAI	0x06
0005d8   4868     rsubar  0x68             	RSUBAR	_MOTO_MODE
0005d9   e187     jbset   0x187, 0         	JBSET	PFLAG,0
0005da   a5de     goto    0x5de            	GOTO	_00160_DS_
                                           ;;genSkipc:3291: created from rifx:013B5EFC
                                           ;	.line	212; "MC32P7351.c"	MOTO_MODE=0;
0005db   7668     clrr    0x68             	CLRR	_MOTO_MODE
                                           ;	.line	213; "MC32P7351.c"	WORK_ON=0;
0005dc   d461     bclr    0x61, 0x2        	BCLR	_KEY_FLAG,2
                                           ;	.line	214; "MC32P7351.c"	B_MOTO_LEVE_ZS=0;
0005dd   da5f     bclr    0x5f, 0x5        	BCLR	_flag1,5
                                           _00160_DS_
                                           ;	.line	225; "MC32P7351.c"	}
0005de   000c     return                   	RETURN	
                                           ; exit point of _SCAN_KEY_CTR
                                           
                                           ;***
                                           ;  pBlock Stats: dbName = C
                                           ;***
                                           ;entry:  _Sys_Init	;Function start
                                           ; 2 exit points
                                           ;has an exit
                                           ;functions called:
                                           ;   _CLR_RAM
                                           ;   _IO_Init
                                           ;   _ADC_Power_On_Stability
                                           ;   _ADC_Zero_ADJ
                                           ;   _TIMER0_INT_Init
                                           ;   _TIMER1_PWM_Init
                                           ;   _CLR_RAM
                                           ;   _IO_Init
                                           ;   _ADC_Power_On_Stability
                                           ;   _ADC_Zero_ADJ
                                           ;   _TIMER0_INT_Init
                                           ;   _TIMER1_PWM_Init
                                           ;1 compiler assigned register :
                                           ;   r0x104F
                                           ;; Starting pCode block
                                           _Sys_Init	;Function start
                                           ; 2 exit points
                                           ;	.line	108; "MC32P7351.c"	GIE = 0;
0005df   df88     bclr    0x188, 0x7       	BCLR	_MCRbits,7
                                           ;	.line	109; "MC32P7351.c"	CLR_RAM();
0005e0   8619     call    0x619            	CALL	_CLR_RAM
                                           ;	.line	110; "MC32P7351.c"	IO_Init();
0005e1   8606     call    0x606            	CALL	_IO_Init
                                           ;	.line	111; "MC32P7351.c"	ADC_Power_On_Stability();
0005e2   80de     call    0xde             	CALL	_ADC_Power_On_Stability
                                           _00124_DS_
                                           ;	.line	112; "MC32P7351.c"	while (ADC_Zero_ADJ());                      //demo,
0005e3   807a     call    0x7a             	CALL	_ADC_Zero_ADJ
0005e4   5607     movra   0x7              	MOVRA	r0x104F
0005e5   3c00     movai   0                	MOVAI	0x00
0005e6   5c07     orar    0x7              	ORAR	r0x104F
0005e7   e587     jbset   0x187, 0x2       	JBSET	PFLAG,2
0005e8   a5e3     goto    0x5e3            	GOTO	_00124_DS_
                                           ;	.line	113; "MC32P7351.c"	TIMER0_INT_Init();
0005e9   85fa     call    0x5fa            	CALL	_TIMER0_INT_Init
                                           ;	.line	114; "MC32P7351.c"	TIMER1_PWM_Init();
0005ea   85f3     call    0x5f3            	CALL	_TIMER1_PWM_Init
                                           ;	.line	117; "MC32P7351.c"	ADCR0 = 0B10101011;                      //ADC12H8L4VDD/4
0005eb   3cab     movai   0xab             	MOVAI	0xab
0005ec   57b0     movra   0x1b0            	MOVRA	_ADCR0
                                           ;	.line	118; "MC32P7351.c"	ADCR1 = 0x80;                      //32VDD
0005ed   3c80     movai   0x80             	MOVAI	0x80
0005ee   57b1     movra   0x1b1            	MOVRA	_ADCR1
                                           ;	.line	119; "MC32P7351.c"	ADCR2 = 0xff;                      //15ADCLK
0005ef   3cff     movai   0xff             	MOVAI	0xff
0005f0   57b2     movra   0x1b2            	MOVRA	_ADCR2
                                           ;	.line	120; "MC32P7351.c"	GIE = 1;
0005f1   cf88     bset    0x188, 0x7       	BSET	_MCRbits,7
                                           ;	.line	121; "MC32P7351.c"	}
0005f2   000c     return                   	RETURN	
                                           ; exit point of _Sys_Init
                                           
                                           ;***
                                           ;  pBlock Stats: dbName = C
                                           ;***
                                           ;entry:  _TIMER1_PWM_Init	;Function start
                                           ; 2 exit points
                                           ;has an exit
                                           ;; Starting pCode block
                                           _TIMER1_PWM_Init	;Function start
                                           ; 2 exit points
                                           ;	.line	82; "MC32P7351.c"	T1CR   = 0b00000000;     	//PWM,CPU,2
0005f3   779c     clrr    0x19c            	CLRR	_T1CR
                                           ;	.line	83; "MC32P7351.c"	T1CNT  = 0;
0005f4   779d     clrr    0x19d            	CLRR	_T1CNT
                                           ;	.line	84; "MC32P7351.c"	T1LOAD = 178;          		//62.5us
0005f5   3cb2     movai   0xb2             	MOVAI	0xb2
0005f6   579e     movra   0x19e            	MOVRA	_T1LOAD
                                           ;	.line	86; "MC32P7351.c"	T1EN   = 1;
0005f7   cf9c     bset    0x19c, 0x7       	BSET	_T1CRbits,7
                                           ;	.line	87; "MC32P7351.c"	T1IE   = 1;
0005f8   c38a     bset    0x18a, 0x1       	BSET	_INTEbits,1
                                           ;	.line	88; "MC32P7351.c"	}
0005f9   000c     return                   	RETURN	
                                           ; exit point of _TIMER1_PWM_Init
                                           
                                           ;***
                                           ;  pBlock Stats: dbName = C
                                           ;***
                                           ;entry:  _TIMER0_INT_Init	;Function start
                                           ; 2 exit points
                                           ;has an exit
                                           ;; Starting pCode block
                                           _TIMER0_INT_Init	;Function start
                                           ; 2 exit points
                                           ;	.line	68; "MC32P7351.c"	T0CR   = 0B00001000;			// PWM0		FTMR
0005fa   3c08     movai   0x8              	MOVAI	0x08
0005fb   5798     movra   0x198            	MOVRA	_T0CR
                                           ;	.line	69; "MC32P7351.c"	T0CNT  = 199;
0005fc   3cc7     movai   0xc7             	MOVAI	0xc7
0005fd   5799     movra   0x199            	MOVRA	_T0CNT
                                           ;	.line	70; "MC32P7351.c"	T0LOAD = 199;				
0005fe   3cc7     movai   0xc7             	MOVAI	0xc7
0005ff   579a     movra   0x19a            	MOVRA	_T0LOAD
                                           ;	.line	72; "MC32P7351.c"	BUFF_MOTO= 0;
000600   7669     clrr    0x69             	CLRR	_BUFF_MOTO
                                           ;	.line	73; "MC32P7351.c"	SY_IO=0;
000601   dd94     bclr    0x194, 0x6       	BCLR	_IOP1bits,6
                                           ;	.line	74; "MC32P7351.c"	T0EN   = 0;
000602   df98     bclr    0x198, 0x7       	BCLR	_T0CRbits,7
                                           ;	.line	75; "MC32P7351.c"	PWM0EC = 0;
000603   dd98     bclr    0x198, 0x6       	BCLR	_T0CRbits,6
                                           ;	.line	76; "MC32P7351.c"	T0DATA = 0;
000604   779b     clrr    0x19b            	CLRR	_T0DATA
                                           ;	.line	77; "MC32P7351.c"	}
000605   000c     return                   	RETURN	
                                           ; exit point of _TIMER0_INT_Init
                                           
                                           ;***
                                           ;  pBlock Stats: dbName = C
                                           ;***
                                           ;entry:  _IO_Init	;Function start
                                           ; 2 exit points
                                           ;has an exit
                                           ;; Starting pCode block
                                           _IO_Init	;Function start
                                           ; 2 exit points
                                           ;	.line	42; "MC32P7351.c"	IOP0   = 0B00000000;                 //io
000606   7790     clrr    0x190            	CLRR	_IOP0
                                           ;	.line	43; "MC32P7351.c"	OEP0   = 0B11100000;                 //io 1:out  0:in
000607   3ce0     movai   0xe0             	MOVAI	0xe0
000608   5791     movra   0x191            	MOVRA	_OEP0
                                           ;	.line	44; "MC32P7351.c"	PUP0   = 0x00;                       //io   1:enable  0:disable
000609   7792     clrr    0x192            	CLRR	_PUP0
                                           ;	.line	45; "MC32P7351.c"	PDP0   = 0x00;                       //io   1:enable  0:disable
00060a   7793     clrr    0x193            	CLRR	_PDP0
                                           ;	.line	46; "MC32P7351.c"	ADIOS0 = 0B00010000;                 //io  1:  0:io
00060b   3c10     movai   0x10             	MOVAI	0x10
00060c   57b6     movra   0x1b6            	MOVRA	_ADIOS0
                                           ;	.line	48; "MC32P7351.c"	IOP1   = 0B00000000;                 //io
00060d   7794     clrr    0x194            	CLRR	_IOP1
                                           ;	.line	49; "MC32P7351.c"	OEP1   = 0B11010001;                 //io 1:out  0:in
00060e   3cd1     movai   0xd1             	MOVAI	0xd1
00060f   5795     movra   0x195            	MOVRA	_OEP1
                                           ;	.line	50; "MC32P7351.c"	PUP1   = 0B00001100;                 //io   1:enable  0:disable
000610   3c0c     movai   0xc              	MOVAI	0x0c
000611   5796     movra   0x196            	MOVRA	_PUP1
                                           ;	.line	51; "MC32P7351.c"	PDP1   = 0B00000000;                 //io   1:enable  0:disable
000612   7797     clrr    0x197            	CLRR	_PDP1
                                           ;	.line	52; "MC32P7351.c"	ADIOS1 = 0B00000000;                 //io  1:  0:io
000613   77b7     clrr    0x1b7            	CLRR	_ADIOS1
                                           ;	.line	54; "MC32P7351.c"	PMOD   = 0B00000011;                 //bit7-bit5 P17P13P01 io 1:  0:io 
000614   3c03     movai   0x3              	MOVAI	0x03
000615   57bc     movra   0x1bc            	MOVRA	_PMOD
                                           ;	.line	56; "MC32P7351.c"	DRVCR  = 0x80;                       //
000616   3c80     movai   0x80             	MOVAI	0x80
000617   578c     movra   0x18c            	MOVRA	_DRVCR
                                           ;	.line	57; "MC32P7351.c"	}
000618   000c     return                   	RETURN	
                                           ; exit point of _IO_Init
                                           
                                           ;***
                                           ;  pBlock Stats: dbName = C
                                           ;***
                                           ;entry:  _CLR_RAM	;Function start
                                           ; 2 exit points
                                           ;has an exit
                                           ;; Starting pCode block
                                           _CLR_RAM	;Function start
                                           ; 2 exit points
                                           ;	.line	27; "MC32P7351.c"	for (FSR0 = 0; FSR0 < 0xff; FSR0++)
000619   7784     clrr    0x184            	CLRR	_FSR0
                                           ;;unsigned compare: left < lit(0xFF=255), size=1
                                           _00107_DS_
00061a   3cff     movai   0xff             	MOVAI	0xff
00061b   4984     rsubar  0x184            	RSUBAR	_FSR0
00061c   f187     jbclr   0x187, 0         	JBCLR	PFLAG,0
00061d   a621     goto    0x621            	GOTO	_00105_DS_
                                           ;;genSkipc:3291: created from rifx:013B5EFC
                                           ;	.line	29; "MC32P7351.c"	INDF0 = 0x00;
00061e   7780     clrr    0x180            	CLRR	_INDF0
                                           ;	.line	27; "MC32P7351.c"	for (FSR0 = 0; FSR0 < 0xff; FSR0++)
00061f   6784     incr    0x184            	INCR	_FSR0
000620   a61a     goto    0x61a            	GOTO	_00107_DS_
                                           _00105_DS_
                                           ;	.line	31; "MC32P7351.c"	FSR0 = 0xFF;
000621   3cff     movai   0xff             	MOVAI	0xff
000622   5784     movra   0x184            	MOVRA	_FSR0
                                           ;	.line	32; "MC32P7351.c"	INDF0 = 0x00;
000623   7780     clrr    0x180            	CLRR	_INDF0
                                           ;	.line	33; "MC32P7351.c"	}
000624   000c     return                   	RETURN	
                                           ; exit point of _CLR_RAM
                                           
                                           
                                           ;	code size estimation:
                                           ;	 1546+    0 =  1546 instructions ( 3092 byte)
                                           
                                           	end
                                           ;--------------------------------------------------------
                                           ; File Created by SN-SDCC : SinoMCU ANSI-C Compiler
                                           ; Version 2.0.0 (Dec 11 2019) (MINGW32)
                                           ; This file was generated Tue Apr 23 10:47:11 2024
                                           ;--------------------------------------------------------
                                           ; MC32 port for the RISC core
                                           ;--------------------------------------------------------
                                           ;	.file	"MC32P7351.c"
                                           	list	p=7351
                                           	radix dec
                                           	include "7351.inc"
                                           ;--------------------------------------------------------
                                           ; external declarations
                                           ;--------------------------------------------------------
                                           	extern	_TIMER2_PWM_Init
                                           	extern	__modsint
                                           	extern	__divsint
                                           	extern	__divuint
                                           	extern	_INDF0bits
                                           	extern	_INDF1bits
                                           	extern	_INDF2bits
                                           	extern	_HIBYTEbits
                                           	extern	_FSR0bits
                                           	extern	_FSR1bits
                                           	extern	_PCLbits
                                           	extern	_PFLAGbits
                                           	extern	_MCRbits
                                           	extern	_INDF3bits
                                           	extern	_INTEbits
                                           	extern	_INTFbits
                                           	extern	_DRVCRbits
                                           	extern	_PFRCCRbits
                                           	extern	_P1KBCRbits
                                           	extern	_PFRCCALbits
                                           	extern	_IOP0bits
                                           	extern	_OEP0bits
                                           	extern	_PUP0bits
                                           	extern	_PDP0bits
                                           	extern	_IOP1bits
                                           	extern	_OEP1bits
                                           	extern	_PUP1bits
                                           	extern	_PDP1bits
                                           	extern	_T0CRbits
                                           	extern	_T0CNTbits
                                           	extern	_T0LOADbits
                                           	extern	_T0DATAbits
                                           	extern	_T1CRbits
                                           	extern	_T1CNTbits
                                           	extern	_T1LOADbits
                                           	extern	_T1DATAbits
                                           	extern	_T2CRbits
                                           	extern	_T2CNTbits
                                           	extern	_T2LOADbits
                                           	extern	_T2DATAbits
                                           	extern	_T3CRbits
                                           	extern	_T3CNTbits
                                           	extern	_T3LOADbits
                                           	extern	_PWM0DRbits
                                           	extern	_PWM1DRbits
                                           	extern	_PWM2DRbits
                                           	extern	_PWMCR0bits
                                           	extern	_PWMCR1bits
                                           	extern	_OSCMRbits
                                           	extern	_LVDCRbits
                                           	extern	_ADCR0bits
                                           	extern	_ADCR1bits
                                           	extern	_ADCR2bits
                                           	extern	_OSADJCRbits
                                           	extern	_ADRHbits
                                           	extern	_ADRLbits
                                           	extern	_ADIOS0bits
                                           	extern	_ADIOS1bits
                                           	extern	_PMODbits
                                           	extern	_PWMCR3bits
                                           	extern	_PWMCR2bits
                                           	extern	_PFRCAUXbits
                                           	extern	_HIRCCALbits
                                           	extern	_INDF0
                                           	extern	_INDF1
                                           	extern	_INDF2
                                           	extern	_HIBYTE
                                           	extern	_FSR0
                                           	extern	_FSR1
                                           	extern	_PCL
                                           	extern	_PFLAG
                                           	extern	_MCR
                                           	extern	_INDF3
                                           	extern	_INTE
                                           	extern	_INTF
                                           	extern	_DRVCR
                                           	extern	_PFRCCR
                                           	extern	_P1KBCR
                                           	extern	_PFRCCAL
                                           	extern	_IOP0
                                           	extern	_OEP0
                                           	extern	_PUP0
                                           	extern	_PDP0
                                           	extern	_IOP1
                                           	extern	_OEP1
                                           	extern	_PUP1
                                           	extern	_PDP1
                                           	extern	_T0CR
                                           	extern	_T0CNT
                                           	extern	_T0LOAD
                                           	extern	_T0DATA
                                           	extern	_T1CR
                                           	extern	_T1CNT
                                           	extern	_T1LOAD
                                           	extern	_T1DATA
                                           	extern	_T2CR
                                           	extern	_T2CNT
                                           	extern	_T2LOAD
                                           	extern	_T2DATA
                                           	extern	_T3CR
                                           	extern	_T3CNT
                                           	extern	_T3LOAD
                                           	extern	_PWM0DR
                                           	extern	_PWM1DR
                                           	extern	_PWM2DR
                                           	extern	_PWMCR0
                                           	extern	_PWMCR1
                                           	extern	_OSCMR
                                           	extern	_LVDCR
                                           	extern	_ADCR0
                                           	extern	_ADCR1
                                           	extern	_ADCR2
                                           	extern	_OSADJCR
                                           	extern	_ADRH
                                           	extern	_ADRL
                                           	extern	_ADIOS0
                                           	extern	_ADIOS1
                                           	extern	_PMOD
                                           	extern	_PWMCR3
                                           	extern	_PWMCR2
                                           	extern	_PFRCAUX
                                           	extern	_HIRCCAL
                                           ;--------------------------------------------------------
                                           ; global declarations
                                           ;--------------------------------------------------------
                                           	global	_SCAN_SLEEP_CTR
                                           	global	_ADC_Zero_ADJ
                                           	global	_ADC_Power_On_Stability
                                           	global	_SCAN_HOT_BAT_AD
                                           	global	_SET_DL_DIS
                                           	global	_GET_SMG_VALUE
                                           	global	_SCAN_SMG_DIS
                                           	global	_SCAN_SMG_CTR
                                           	global	_SCAN_FUNTION_CTR
                                           	global	_SCAN_CHARGE_CTR
                                           	global	_SCAN_KEY_CTR
                                           	global	_Sys_Init
                                           	global	_TIMER1_PWM_Init
                                           	global	_TIMER0_INT_Init
                                           	global	_IO_Init
                                           	global	_CLR_RAM
                                           	global	_main
                                           	global	_int_isr
                                           	global	_flag1
                                           	global	_flag2
                                           	global	_KEY_FLAG
                                           	global	_B_SMG_S
                                           	global	_B_SMG_B
                                           	global	_B_SMG_C
                                           	global	_abuf
                                           	global	_statusbuf
                                           	global	_KEY_CNT1
                                           	global	_KEY_CNT2
                                           	global	_MOTO_MODE
                                           	global	_BUFF_MOTO
                                           	global	_BUFF_SMG_DAT
                                           	global	_SMG_MODE
                                           	global	_B_BUFF_0
                                           	global	_B_BUFF_1
                                           	global	_TIME_500US_CNT
                                           	global	_DL_DIS_CNT
                                           	global	_TIME_1MS_CNT
                                           	global	_R_AD_CNT1
                                           	global	_G_VAL
                                           	global	_CHARGE_CNT1
                                           	global	_CHARGE_CNT2
                                           	global	_CHARGE_CNT3
                                           	global	_SL_CNT
                                           	global	_LED_MODE
                                           	global	_BAT_CNT5
                                           	global	_AD_MODE
                                           	global	_MOTO_CNT1
                                           	global	_MOTO_CNT2
                                           	global	_R_AD_CNT2
                                           	global	_BUFF_M_CNT
                                           	global	_CHARG_DIS_CNT
                                           	global	_MOTO_DIS_CNT
                                           	global	_CHARGE_CNT
                                           	global	_DL_DIS_CNT1
                                           	global	_DL_DIS_CNT2
                                           	global	_BUFF_BAT_VALUE
                                           	global	_SET_BAT_VALUE
                                           	global	_IN_LOAD_CNT1
                                           	global	_IN_LOAD_CNT2
                                           	global	_W_OVER_ALL1
                                           	global	_W_OVER_ALL2
                                           	global	_BUFF_OVER_ALL2
                                           	global	_WAIT_ADC_CHANGE
                                           	global	_WAIT_ADC_CHANGE1
                                           	global	_g_temp_value
                                           	global	_g_temp_value1
                                           	global	_PL_DIS_CNT1
                                           
                                           	global STK06
                                           	global STK05
                                           	global STK04
                                           	global STK03
                                           	global STK02
                                           	global STK01
                                           	global STK00
                                           
                                           sharebank udata_ovr 0x0000
                                           STK06	res 1
                                           STK05	res 1
                                           STK04	res 1
                                           STK03	res 1
                                           STK02	res 1
                                           STK01	res 1
                                           STK00	res 1
                                           
                                           ;--------------------------------------------------------
                                           ; global definitions
                                           ;--------------------------------------------------------
                                           UD_MC32P7351_0	udata
                                           _flag1	res	1
                                           
                                           UD_MC32P7351_1	udata
                                           _flag2	res	1
                                           
                                           UD_MC32P7351_2	udata
                                           _KEY_FLAG	res	1
                                           
                                           UD_MC32P7351_3	udata
                                           _B_SMG_S	res	1
                                           
                                           UD_MC32P7351_4	udata
                                           _B_SMG_B	res	1
                                           
                                           UD_MC32P7351_5	udata
                                           _B_SMG_C	res	1
                                           
                                           UD_MC32P7351_6	udata
                                           _abuf	res	1
                                           
                                           UD_MC32P7351_7	udata
                                           _statusbuf	res	1
                                           
                                           UD_MC32P7351_8	udata
                                           _KEY_CNT1	res	2
                                           
                                           UD_MC32P7351_9	udata
                                           _KEY_CNT2	res	1
                                           
                                           UD_MC32P7351_10	udata
                                           _MOTO_MODE	res	1
                                           
                                           UD_MC32P7351_11	udata
                                           _BUFF_MOTO	res	1
                                           
                                           UD_MC32P7351_12	udata
                                           _BUFF_SMG_DAT	res	1
                                           
                                           UD_MC32P7351_13	udata
                                           _SMG_MODE	res	1
                                           
                                           UD_MC32P7351_14	udata
                                           _B_BUFF_0	res	1
                                           
                                           UD_MC32P7351_15	udata
                                           _B_BUFF_1	res	1
                                           
                                           UD_MC32P7351_16	udata
                                           _TIME_500US_CNT	res	1
                                           
                                           UD_MC32P7351_17	udata
                                           _DL_DIS_CNT	res	1
                                           
                                           UD_MC32P7351_18	udata
                                           _TIME_1MS_CNT	res	1
                                           
                                           UD_MC32P7351_19	udata
                                           _R_AD_CNT1	res	1
                                           
                                           UD_MC32P7351_20	udata
                                           _G_VAL	res	1
                                           
                                           UD_MC32P7351_21	udata
                                           _CHARGE_CNT1	res	1
                                           
                                           UD_MC32P7351_22	udata
                                           _CHARGE_CNT2	res	1
                                           
                                           UD_MC32P7351_23	udata
                                           _CHARGE_CNT3	res	1
                                           
                                           UD_MC32P7351_24	udata
                                           _SL_CNT	res	1
                                           
                                           UD_MC32P7351_25	udata
                                           _LED_MODE	res	1
                                           
                                           UD_MC32P7351_26	udata
                                           _BAT_CNT5	res	1
                                           
                                           UD_MC32P7351_27	udata
                                           _AD_MODE	res	1
                                           
                                           UD_MC32P7351_28	udata
                                           _MOTO_CNT1	res	1
                                           
                                           UD_MC32P7351_29	udata
                                           _MOTO_CNT2	res	1
                                           
                                           UD_MC32P7351_30	udata
                                           _R_AD_CNT2	res	1
                                           
                                           UD_MC32P7351_31	udata
                                           _BUFF_M_CNT	res	1
                                           
                                           UD_MC32P7351_32	udata
                                           _CHARG_DIS_CNT	res	2
                                           
                                           UD_MC32P7351_33	udata
                                           _MOTO_DIS_CNT	res	2
                                           
                                           UD_MC32P7351_34	udata
                                           _CHARGE_CNT	res	2
                                           
                                           UD_MC32P7351_35	udata
                                           _DL_DIS_CNT1	res	2
                                           
                                           UD_MC32P7351_36	udata
                                           _DL_DIS_CNT2	res	2
                                           
                                           UD_MC32P7351_37	udata
                                           _BUFF_BAT_VALUE	res	2
                                           
                                           UD_MC32P7351_38	udata
                                           _SET_BAT_VALUE	res	2
                                           
                                           UD_MC32P7351_39	udata
                                           _IN_LOAD_CNT1	res	2
                                           
                                           UD_MC32P7351_40	udata
                                           _IN_LOAD_CNT2	res	2
                                           
                                           UD_MC32P7351_41	udata
                                           _W_OVER_ALL1	res	2
                                           
                                           UD_MC32P7351_42	udata
                                           _W_OVER_ALL2	res	2
                                           
                                           UD_MC32P7351_43	udata
                                           _BUFF_OVER_ALL2	res	2
                                           
                                           UD_MC32P7351_44	udata
                                           _WAIT_ADC_CHANGE	res	2
                                           
                                           UD_MC32P7351_45	udata
                                           _WAIT_ADC_CHANGE1	res	2
                                           
                                           UD_MC32P7351_46	udata
                                           _g_temp_value	res	2
                                           
                                           UD_MC32P7351_47	udata
                                           _g_temp_value1	res	2
                                           
                                           UD_MC32P7351_48	udata
                                           _PL_DIS_CNT1	res	2
                                           
                                           ;--------------------------------------------------------
                                           ; absolute symbol definitions
                                           ;--------------------------------------------------------
                                           ;--------------------------------------------------------
                                           ; compiler-defined variables
                                           ;--------------------------------------------------------
                                           UDL_MC32P7351_0	udata
                                           r0x104F	res	1
                                           r0x104E	res	1
                                           r0x104D	res	1
                                           r0x1048	res	1
                                           r0x1049	res	1
                                           r0x104A	res	1
                                           r0x104B	res	1
                                           r0x1043	res	1
                                           r0x1042	res	1
                                           r0x1044	res	1
                                           r0x1045	res	1
                                           r0x1046	res	1
                                           r0x1047	res	1
                                           r0x1040	res	1
                                           r0x1041	res	1
                                           r0x103E	res	1
                                           r0x103F	res	1
                                           r0x1050	res	1
                                           r0x1051	res	1
                                           ;--------------------------------------------------------
                                           ; initialized data
                                           ;--------------------------------------------------------
                                           
                                           ;@Allocation info for local variables in function 'CLR_RAM'
                                           ;@CLR_RAM Sys_Init                  Allocated to registers ;size:2
                                           ;@CLR_RAM IO_Init                   Allocated to registers ;size:2
                                           ;@CLR_RAM TIMER0_INT_Init           Allocated to registers ;size:2
                                           ;@CLR_RAM TIMER1_PWM_Init           Allocated to registers ;size:2
                                           ;@CLR_RAM TIMER2_PWM_Init           Allocated to registers ;size:2
                                           ;@CLR_RAM SCAN_KEY_CTR              Allocated to registers ;size:2
                                           ;@CLR_RAM SCAN_CHARGE_CTR           Allocated to registers ;size:2
                                           ;@CLR_RAM SCAN_SMG_CTR              Allocated to registers ;size:2
                                           ;@CLR_RAM SCAN_SMG_DIS              Allocated to registers ;size:2
                                           ;@CLR_RAM GET_SMG_VALUE             Allocated to registers ;size:2
                                           ;@CLR_RAM SET_DL_DIS                Allocated to registers ;size:2
                                           ;@CLR_RAM SCAN_FUNTION_CTR          Allocated to registers ;size:2
                                           ;@CLR_RAM SCAN_SLEEP_CTR            Allocated to registers ;size:2
                                           ;@CLR_RAM SCAN_HOT_BAT_AD           Allocated to registers ;size:2
                                           ;@CLR_RAM ADC_Power_On_Stability    Allocated to registers ;size:2
                                           ;@CLR_RAM ADC_Zero_ADJ              Allocated to registers ;size:2
                                           ;@CLR_RAM INDF0bits                 Allocated to registers ;size:1
                                           ;@CLR_RAM INDF1bits                 Allocated to registers ;size:1
                                           ;@CLR_RAM INDF2bits                 Allocated to registers ;size:1
                                           ;@CLR_RAM HIBYTEbits                Allocated to registers ;size:1
                                           ;@CLR_RAM FSR0bits                  Allocated to registers ;size:1
                                           ;@CLR_RAM FSR1bits                  Allocated to registers ;size:1
                                           ;@CLR_RAM PCLbits                   Allocated to registers ;size:1
                                           ;@CLR_RAM PFLAGbits                 Allocated to registers ;size:1
                                           ;@CLR_RAM MCRbits                   Allocated to registers ;size:1
                                           ;@CLR_RAM INDF3bits                 Allocated to registers ;size:1
                                           ;@CLR_RAM INTEbits                  Allocated to registers ;size:1
                                           ;@CLR_RAM INTFbits                  Allocated to registers ;size:1
                                           ;@CLR_RAM DRVCRbits                 Allocated to registers ;size:1
                                           ;@CLR_RAM PFRCCRbits                Allocated to registers ;size:1
                                           ;@CLR_RAM P1KBCRbits                Allocated to registers ;size:1
                                           ;@CLR_RAM PFRCCALbits               Allocated to registers ;size:1
                                           ;@CLR_RAM IOP0bits                  Allocated to registers ;size:1
                                           ;@CLR_RAM OEP0bits                  Allocated to registers ;size:1
                                           ;@CLR_RAM PUP0bits                  Allocated to registers ;size:1
                                           ;@CLR_RAM PDP0bits                  Allocated to registers ;size:1
                                           ;@CLR_RAM IOP1bits                  Allocated to registers ;size:1
                                           ;@CLR_RAM OEP1bits                  Allocated to registers ;size:1
                                           ;@CLR_RAM PUP1bits                  Allocated to registers ;size:1
                                           ;@CLR_RAM PDP1bits                  Allocated to registers ;size:1
                                           ;@CLR_RAM T0CRbits                  Allocated to registers ;size:1
                                           ;@CLR_RAM T0CNTbits                 Allocated to registers ;size:1
                                           ;@CLR_RAM T0LOADbits                Allocated to registers ;size:1
                                           ;@CLR_RAM T0DATAbits                Allocated to registers ;size:1
                                           ;@CLR_RAM T1CRbits                  Allocated to registers ;size:1
                                           ;@CLR_RAM T1CNTbits                 Allocated to registers ;size:1
                                           ;@CLR_RAM T1LOADbits                Allocated to registers ;size:1
                                           ;@CLR_RAM T1DATAbits                Allocated to registers ;size:1
                                           ;@CLR_RAM T2CRbits                  Allocated to registers ;size:1
                                           ;@CLR_RAM T2CNTbits                 Allocated to registers ;size:1
                                           ;@CLR_RAM T2LOADbits                Allocated to registers ;size:1
                                           ;@CLR_RAM T2DATAbits                Allocated to registers ;size:1
                                           ;@CLR_RAM T3CRbits                  Allocated to registers ;size:1
                                           ;@CLR_RAM T3CNTbits                 Allocated to registers ;size:1
                                           ;@CLR_RAM T3LOADbits                Allocated to registers ;size:1
                                           ;@CLR_RAM PWM0DRbits                Allocated to registers ;size:1
                                           ;@CLR_RAM PWM1DRbits                Allocated to registers ;size:1
                                           ;@CLR_RAM PWM2DRbits                Allocated to registers ;size:1
                                           ;@CLR_RAM PWMCR0bits                Allocated to registers ;size:1
                                           ;@CLR_RAM PWMCR1bits                Allocated to registers ;size:1
                                           ;@CLR_RAM OSCMRbits                 Allocated to registers ;size:1
                                           ;@CLR_RAM LVDCRbits                 Allocated to registers ;size:1
                                           ;@CLR_RAM ADCR0bits                 Allocated to registers ;size:1
                                           ;@CLR_RAM ADCR1bits                 Allocated to registers ;size:1
                                           ;@CLR_RAM ADCR2bits                 Allocated to registers ;size:1
                                           ;@CLR_RAM OSADJCRbits               Allocated to registers ;size:1
                                           ;@CLR_RAM ADRHbits                  Allocated to registers ;size:1
                                           ;@CLR_RAM ADRLbits                  Allocated to registers ;size:1
                                           ;@CLR_RAM ADIOS0bits                Allocated to registers ;size:1
                                           ;@CLR_RAM ADIOS1bits                Allocated to registers ;size:1
                                           ;@CLR_RAM PMODbits                  Allocated to registers ;size:1
                                           ;@CLR_RAM PWMCR3bits                Allocated to registers ;size:1
                                           ;@CLR_RAM PWMCR2bits                Allocated to registers ;size:1
                                           ;@CLR_RAM PFRCAUXbits               Allocated to registers ;size:1
                                           ;@CLR_RAM HIRCCALbits               Allocated to registers ;size:1
                                           ;@CLR_RAM flag1                     Allocated to registers ;size:1
                                           ;@CLR_RAM flag2                     Allocated to registers ;size:1
                                           ;@CLR_RAM KEY_FLAG                  Allocated to registers ;size:1
                                           ;@CLR_RAM B_SMG_S                   Allocated to registers ;size:1
                                           ;@CLR_RAM B_SMG_B                   Allocated to registers ;size:1
                                           ;@CLR_RAM B_SMG_C                   Allocated to registers ;size:1
                                           ;@CLR_RAM abuf                      Allocated to registers ;size:1
                                           ;@CLR_RAM statusbuf                 Allocated to registers ;size:1
                                           ;@CLR_RAM KEY_CNT1                  Allocated to registers ;size:2
                                           ;@CLR_RAM KEY_CNT2                  Allocated to registers ;size:1
                                           ;@CLR_RAM MOTO_MODE                 Allocated to registers ;size:1
                                           ;@CLR_RAM BUFF_MOTO                 Allocated to registers ;size:1
                                           ;@CLR_RAM BUFF_SMG_DAT              Allocated to registers ;size:1
                                           ;@CLR_RAM SMG_MODE                  Allocated to registers ;size:1
                                           ;@CLR_RAM B_BUFF_0                  Allocated to registers ;size:1
                                           ;@CLR_RAM B_BUFF_1                  Allocated to registers ;size:1
                                           ;@CLR_RAM TIME_500US_CNT            Allocated to registers ;size:1
                                           ;@CLR_RAM DL_DIS_CNT                Allocated to registers ;size:1
                                           ;@CLR_RAM TIME_1MS_CNT              Allocated to registers ;size:1
                                           ;@CLR_RAM R_AD_CNT1                 Allocated to registers ;size:1
                                           ;@CLR_RAM G_VAL                     Allocated to registers ;size:1
                                           ;@CLR_RAM CHARGE_CNT1               Allocated to registers ;size:1
                                           ;@CLR_RAM CHARGE_CNT2               Allocated to registers ;size:1
                                           ;@CLR_RAM CHARGE_CNT3               Allocated to registers ;size:1
                                           ;@CLR_RAM SL_CNT                    Allocated to registers ;size:1
                                           ;@CLR_RAM LED_MODE                  Allocated to registers ;size:1
                                           ;@CLR_RAM BAT_CNT5                  Allocated to registers ;size:1
                                           ;@CLR_RAM AD_MODE                   Allocated to registers ;size:1
                                           ;@CLR_RAM MOTO_CNT1                 Allocated to registers ;size:1
                                           ;@CLR_RAM MOTO_CNT2                 Allocated to registers ;size:1
                                           ;@CLR_RAM R_AD_CNT2                 Allocated to registers ;size:1
                                           ;@CLR_RAM BUFF_M_CNT                Allocated to registers ;size:1
                                           ;@CLR_RAM CHARG_DIS_CNT             Allocated to registers ;size:2
                                           ;@CLR_RAM MOTO_DIS_CNT              Allocated to registers ;size:2
                                           ;@CLR_RAM CHARGE_CNT                Allocated to registers ;size:2
                                           ;@CLR_RAM DL_DIS_CNT1               Allocated to registers ;size:2
                                           ;@CLR_RAM DL_DIS_CNT2               Allocated to registers ;size:2
                                           ;@CLR_RAM BUFF_BAT_VALUE            Allocated to registers ;size:2
                                           ;@CLR_RAM SET_BAT_VALUE             Allocated to registers ;size:2
                                           ;@CLR_RAM IN_LOAD_CNT1              Allocated to registers ;size:2
                                           ;@CLR_RAM IN_LOAD_CNT2              Allocated to registers ;size:2
                                           ;@CLR_RAM W_OVER_ALL1               Allocated to registers ;size:2
                                           ;@CLR_RAM W_OVER_ALL2               Allocated to registers ;size:2
                                           ;@CLR_RAM BUFF_OVER_ALL2            Allocated to registers ;size:2
                                           ;@CLR_RAM WAIT_ADC_CHANGE           Allocated to registers ;size:2
                                           ;@CLR_RAM WAIT_ADC_CHANGE1          Allocated to registers ;size:2
                                           ;@CLR_RAM g_temp_value              Allocated to registers ;size:2
                                           ;@CLR_RAM g_temp_value1             Allocated to registers ;size:2
                                           ;@CLR_RAM PL_DIS_CNT1               Allocated to registers ;size:2
                                           ;@CLR_RAM INDF0                     Allocated to registers ;size:1
                                           ;@CLR_RAM INDF1                     Allocated to registers ;size:1
                                           ;@CLR_RAM INDF2                     Allocated to registers ;size:1
                                           ;@CLR_RAM HIBYTE                    Allocated to registers ;size:1
                                           ;@CLR_RAM FSR0                      Allocated to registers ;size:1
                                           ;@CLR_RAM FSR1                      Allocated to registers ;size:1
                                           ;@CLR_RAM PCL                       Allocated to registers ;size:1
                                           ;@CLR_RAM PFLAG                     Allocated to registers ;size:1
                                           ;@CLR_RAM MCR                       Allocated to registers ;size:1
                                           ;@CLR_RAM INDF3                     Allocated to registers ;size:1
                                           ;@CLR_RAM INTE                      Allocated to registers ;size:1
                                           ;@CLR_RAM INTF                      Allocated to registers ;size:1
                                           ;@CLR_RAM DRVCR                     Allocated to registers ;size:1
                                           ;@CLR_RAM PFRCCR                    Allocated to registers ;size:1
                                           ;@CLR_RAM P1KBCR                    Allocated to registers ;size:1
                                           ;@CLR_RAM PFRCCAL                   Allocated to registers ;size:1
                                           ;@CLR_RAM IOP0                      Allocated to registers ;size:1
                                           ;@CLR_RAM OEP0                      Allocated to registers ;size:1
                                           ;@CLR_RAM PUP0                      Allocated to registers ;size:1
                                           ;@CLR_RAM PDP0                      Allocated to registers ;size:1
                                           ;@CLR_RAM IOP1                      Allocated to registers ;size:1
                                           ;@CLR_RAM OEP1                      Allocated to registers ;size:1
                                           ;@CLR_RAM PUP1                      Allocated to registers ;size:1
                                           ;@CLR_RAM PDP1                      Allocated to registers ;size:1
                                           ;@CLR_RAM T0CR                      Allocated to registers ;size:1
                                           ;@CLR_RAM T0CNT                     Allocated to registers ;size:1
                                           ;@CLR_RAM T0LOAD                    Allocated to registers ;size:1
                                           ;@CLR_RAM T0DATA                    Allocated to registers ;size:1
                                           ;@CLR_RAM T1CR                      Allocated to registers ;size:1
                                           ;@CLR_RAM T1CNT                     Allocated to registers ;size:1
                                           ;@CLR_RAM T1LOAD                    Allocated to registers ;size:1
                                           ;@CLR_RAM T1DATA                    Allocated to registers ;size:1
                                           ;@CLR_RAM T2CR                      Allocated to registers ;size:1
                                           ;@CLR_RAM T2CNT                     Allocated to registers ;size:1
                                           ;@CLR_RAM T2LOAD                    Allocated to registers ;size:1
                                           ;@CLR_RAM T2DATA                    Allocated to registers ;size:1
                                           ;@CLR_RAM T3CR                      Allocated to registers ;size:1
                                           ;@CLR_RAM T3CNT                     Allocated to registers ;size:1
                                           ;@CLR_RAM T3LOAD                    Allocated to registers ;size:1
                                           ;@CLR_RAM PWM0DR                    Allocated to registers ;size:1
                                           ;@CLR_RAM PWM1DR                    Allocated to registers ;size:1
                                           ;@CLR_RAM PWM2DR                    Allocated to registers ;size:1
                                           ;@CLR_RAM PWMCR0                    Allocated to registers ;size:1
                                           ;@CLR_RAM PWMCR1                    Allocated to registers ;size:1
                                           ;@CLR_RAM OSCMR                     Allocated to registers ;size:1
                                           ;@CLR_RAM LVDCR                     Allocated to registers ;size:1
                                           ;@CLR_RAM ADCR0                     Allocated to registers ;size:1
                                           ;@CLR_RAM ADCR1                     Allocated to registers ;size:1
                                           ;@CLR_RAM ADCR2                     Allocated to registers ;size:1
                                           ;@CLR_RAM OSADJCR                   Allocated to registers ;size:1
                                           ;@CLR_RAM ADRH                      Allocated to registers ;size:1
                                           ;@CLR_RAM ADRL                      Allocated to registers ;size:1
                                           ;@CLR_RAM ADIOS0                    Allocated to registers ;size:1
                                           ;@CLR_RAM ADIOS1                    Allocated to registers ;size:1
                                           ;@CLR_RAM PMOD                      Allocated to registers ;size:1
                                           ;@CLR_RAM PWMCR3                    Allocated to registers ;size:1
                                           ;@CLR_RAM PWMCR2                    Allocated to registers ;size:1
                                           ;@CLR_RAM PFRCAUX                   Allocated to registers ;size:1
                                           ;@CLR_RAM HIRCCAL                   Allocated to registers ;size:1
                                           ;@end Allocation info for local variables in function 'CLR_RAM';
                                           ;@Allocation info for local variables in function 'IO_Init'
                                           ;@end Allocation info for local variables in function 'IO_Init';
                                           ;@Allocation info for local variables in function 'TIMER0_INT_Init'
                                           ;@end Allocation info for local variables in function 'TIMER0_INT_Init';
                                           ;@Allocation info for local variables in function 'TIMER1_PWM_Init'
                                           ;@end Allocation info for local variables in function 'TIMER1_PWM_Init';
                                           ;@Allocation info for local variables in function 'Sys_Init'
                                           ;@end Allocation info for local variables in function 'Sys_Init';
                                           ;@Allocation info for local variables in function 'main'
                                           ;@end Allocation info for local variables in function 'main';
                                           ;@Allocation info for local variables in function 'SCAN_KEY_CTR'
                                           ;@end Allocation info for local variables in function 'SCAN_KEY_CTR';
                                           ;@Allocation info for local variables in function 'SCAN_CHARGE_CTR'
                                           ;@end Allocation info for local variables in function 'SCAN_CHARGE_CTR';
                                           ;@Allocation info for local variables in function 'SCAN_FUNTION_CTR'
                                           ;@end Allocation info for local variables in function 'SCAN_FUNTION_CTR';
                                           ;@Allocation info for local variables in function 'SCAN_SMG_CTR'
                                           ;@end Allocation info for local variables in function 'SCAN_SMG_CTR';
                                           ;@Allocation info for local variables in function 'SCAN_SMG_DIS'
                                           ;@end Allocation info for local variables in function 'SCAN_SMG_DIS';
                                           ;@Allocation info for local variables in function 'GET_SMG_VALUE'
                                           ;@GET_SMG_VALUE x                         Allocated to registers r0x1048 ;size:1
                                           ;@end Allocation info for local variables in function 'GET_SMG_VALUE';
                                           ;@Allocation info for local variables in function 'SET_DL_DIS'
                                           ;@SET_DL_DIS DL                        Allocated to registers r0x1049 ;size:1
                                           ;@end Allocation info for local variables in function 'SET_DL_DIS';
                                           ;@Allocation info for local variables in function 'SCAN_HOT_BAT_AD'
                                           ;@end Allocation info for local variables in function 'SCAN_HOT_BAT_AD';
                                           ;@Allocation info for local variables in function 'ADC_Power_On_Stability'
                                           ;@ADC_Power_On_Stability cnt                       Allocated to registers r0x1040 ;size:1
                                           ;@end Allocation info for local variables in function 'ADC_Power_On_Stability';
                                           ;@Allocation info for local variables in function 'ADC_Zero_ADJ'
                                           ;@end Allocation info for local variables in function 'ADC_Zero_ADJ';
                                           ;@Allocation info for local variables in function 'SCAN_SLEEP_CTR'
                                           ;@end Allocation info for local variables in function 'SCAN_SLEEP_CTR';
                                           ;@Allocation info for local variables in function 'int_isr'
                                           ;@end Allocation info for local variables in function 'int_isr';
                                           
                                           ;--------------------------------------------------------
                                           ; overlayable items in internal ram 
                                           ;--------------------------------------------------------
                                           ;	udata_ovr
                                           ;--------------------------------------------------------
                                           ; reset vector 
                                           ;--------------------------------------------------------
                                           STARTUP	code 0x0000
                                           	goto	_main
                                           ;--------------------------------------------------------
                                           ; interrupt and initialization code
                                           ;--------------------------------------------------------
                                           c_interrupt	code	0x8
                                           __sdcc_interrupt
                                           ;***
                                           ;  pBlock Stats: dbName = I
                                           ;***
                                           ;entry:  _int_isr	;Function start
                                           ; 0 exit points
                                           ;functions called:
                                           ;   _SCAN_SMG_CTR
                                           ;   _SCAN_SMG_CTR
                                           ;2 compiler assigned registers:
                                           ;   r0x1050
                                           ;   r0x1051
                                           ;; Starting pCode block
                                           _int_isr	;Function start
                                           ; 0 exit points
                                           ;	.line	1274; "MC32P7351.c"	//============================T0==========================
                                           	movra	_abuf
                                           	swapar	_PFLAG
                                           	movra	_statusbuf
                                           ;	.line	1276; "MC32P7351.c"	{
                                           	CLRR	r0x1050
                                           	JBCLR	_INTFbits,1
                                           	INCR	r0x1050
                                           	CLRR	r0x1051
                                           	JBCLR	_INTEbits,1
                                           	INCR	r0x1051
                                           	MOVAR	r0x1051
                                           	ANDRA	r0x1050
                                           	MOVAI	0x00
                                           	ORAR	r0x1050
                                           	JBCLR	PFLAG,2
                                           	GOTO	_01059_DS_
                                           ;	.line	1278; "MC32P7351.c"	T1CNT=178;
                                           	BCLR	_INTFbits,1
                                           ;	.line	1279; "MC32P7351.c"	TIME_500US_CNT++;
                                           	MOVAI	0xb2
                                           	MOVRA	_T1CNT
                                           ;	.line	1281; "MC32P7351.c"	TIME_1MS_CNT++;
                                           	INCR	_TIME_500US_CNT
                                           ;	.line	1282; "MC32P7351.c"	if(TIME_1MS_CNT>19)
                                           	INCR	_TIME_1MS_CNT
                                           ;;swapping arguments (AOP_TYPEs 1/3)
                                           ;;unsigned compare: left >= lit(0x14=20), size=1
                                           ;	.line	1283; "MC32P7351.c"	{
                                           	MOVAI	0x14
                                           	RSUBAR	_TIME_1MS_CNT
                                           	JBSET	PFLAG,0
                                           	GOTO	_01055_DS_
                                           ;;genSkipc:3291: created from rifx:013B5EFC
                                           ;	.line	1285; "MC32P7351.c"	TIME_1MS_F=1;
                                           	CLRR	_TIME_1MS_CNT
                                           ;	.line	1286; "MC32P7351.c"	}
                                           	BSET	_KEY_FLAG,0
                                           ;;swapping arguments (AOP_TYPEs 1/3)
                                           ;;unsigned compare: left >= lit(0xA=10), size=1
                                           _01055_DS_
                                           ;	.line	1289; "MC32P7351.c"	{
                                           	MOVAI	0x0a
                                           	RSUBAR	_TIME_500US_CNT
                                           	JBSET	PFLAG,0
                                           	GOTO	_01057_DS_
                                           ;;genSkipc:3291: created from rifx:013B5EFC
                                           ;	.line	1291; "MC32P7351.c"	TIME_500US_F=1;
                                           	CLRR	_TIME_500US_CNT
                                           ;	.line	1292; "MC32P7351.c"	}
                                           	BSET	_flag1,4
                                           _01057_DS_
                                           ;	.line	1294; "MC32P7351.c"	}
                                           	CALL	_SCAN_SMG_CTR
                                           _01059_DS_
                                           ;	.line	1302; "MC32P7351.c"	}
                                           	swapar	_statusbuf
                                           	movra	_PFLAG
                                           	swapr	_abuf
                                           	swapar	_abuf
                                           END_OF_INTERRUPT
                                           ;	.line	1303; "MC32P7351.c"	/**************************** end of file *********************************************/
                                           	RETIE	
                                           
                                           ;--------------------------------------------------------
                                           ; code
                                           ;--------------------------------------------------------
                                           code_MC32P7351	code
                                           ;***
                                           ;  pBlock Stats: dbName = M
                                           ;***
                                           ;entry:  _main	;Function start
                                           ; 2 exit points
                                           ;has an exit
                                           ;functions called:
                                           ;   _Sys_Init
                                           ;   _SCAN_HOT_BAT_AD
                                           ;   _SCAN_KEY_CTR
                                           ;   _SCAN_CHARGE_CTR
                                           ;   _SCAN_FUNTION_CTR
                                           ;   _SCAN_SMG_DIS
                                           ;   _SCAN_SLEEP_CTR
                                           ;   _Sys_Init
                                           ;   _SCAN_HOT_BAT_AD
                                           ;   _SCAN_KEY_CTR
                                           ;   _SCAN_CHARGE_CTR
                                           ;   _SCAN_FUNTION_CTR
                                           ;   _SCAN_SMG_DIS
                                           ;   _SCAN_SLEEP_CTR
                                           ;; Starting pCode block
                                           _main	;Function start
                                           ; 2 exit points
                                           ;	.line	130; "MC32P7351.c"	Sys_Init();
                                           	CALL	_Sys_Init
                                           _00134_DS_
                                           ;	.line	133; "MC32P7351.c"	if(TIME_500US_F)
                                           	JBSET	_flag1,4
                                           	GOTO	_00130_DS_
                                           ;	.line	135; "MC32P7351.c"	TIME_500US_F=0;
                                           	BCLR	_flag1,4
                                           ;	.line	136; "MC32P7351.c"	ClrWdt();
                                           	clrwdt
                                           ;	.line	137; "MC32P7351.c"	SCAN_HOT_BAT_AD();
                                           	CALL	_SCAN_HOT_BAT_AD
                                           _00130_DS_
                                           ;	.line	140; "MC32P7351.c"	if(TIME_1MS_F)
                                           	JBSET	_KEY_FLAG,0
                                           	GOTO	_00134_DS_
                                           ;	.line	142; "MC32P7351.c"	TIME_1MS_F=0;
                                           	BCLR	_KEY_FLAG,0
                                           ;	.line	143; "MC32P7351.c"	ClrWdt();
                                           	clrwdt
                                           ;	.line	144; "MC32P7351.c"	SCAN_KEY_CTR();
                                           	CALL	_SCAN_KEY_CTR
                                           ;	.line	145; "MC32P7351.c"	SCAN_CHARGE_CTR();
                                           	CALL	_SCAN_CHARGE_CTR
                                           ;	.line	146; "MC32P7351.c"	SCAN_FUNTION_CTR();
                                           	CALL	_SCAN_FUNTION_CTR
                                           ;	.line	147; "MC32P7351.c"	SCAN_SMG_DIS();
                                           	CALL	_SCAN_SMG_DIS
                                           ;	.line	148; "MC32P7351.c"	SCAN_SLEEP_CTR();
                                           	CALL	_SCAN_SLEEP_CTR
                                           	GOTO	_00134_DS_
                                           ;	.line	151; "MC32P7351.c"	}
                                           	RETURN	
                                           ; exit point of _main
                                           
                                           ;***
                                           ;  pBlock Stats: dbName = C
                                           ;***
                                           ;entry:  _SCAN_SLEEP_CTR	;Function start
                                           ; 2 exit points
                                           ;has an exit
                                           ;functions called:
                                           ;   _IO_Init
                                           ;   _IO_Init
                                           ;   _TIMER0_INT_Init
                                           ;   _TIMER1_PWM_Init
                                           ;   _IO_Init
                                           ;   _IO_Init
                                           ;   _TIMER0_INT_Init
                                           ;   _TIMER1_PWM_Init
                                           ;; Starting pCode block
                                           _SCAN_SLEEP_CTR	;Function start
                                           ; 2 exit points
                                           ;	.line	1215; "MC32P7351.c"	{
                                           	JBSET	_IOP1bits,3
                                           	GOTO	_01038_DS_
                                           	JBCLR	_flag1,0
                                           	GOTO	_01038_DS_
                                           	JBCLR	_KEY_FLAG,2
                                           	GOTO	_01038_DS_
                                           	JBCLR	_flag1,2
                                           	GOTO	_01038_DS_
                                           	JBCLR	_flag1,1
                                           	GOTO	_01038_DS_
                                           	JBCLR	_IOP1bits,1
                                           	GOTO	_01038_DS_
                                           	JBSET	_flag1,3
                                           	GOTO	_01038_DS_
                                           	JBCLR	_KEY_FLAG,5
                                           	GOTO	_01039_DS_
                                           _01038_DS_
                                           ;	.line	1217; "MC32P7351.c"	return;
                                           	CLRR	_SL_CNT
                                           ;	.line	1218; "MC32P7351.c"	}
                                           	GOTO	_01049_DS_
                                           _01039_DS_
                                           ;	.line	1220; "MC32P7351.c"	if(SL_CNT<249)
                                           	INCR	_SL_CNT
                                           ;;unsigned compare: left < lit(0xF9=249), size=1
                                           ;	.line	1221; "MC32P7351.c"	{	
                                           	MOVAI	0xf9
                                           	RSUBAR	_SL_CNT
                                           	JBCLR	PFLAG,0
                                           	GOTO	_01048_DS_
                                           ;;genSkipc:3291: created from rifx:013B5EFC
                                           ;	.line	1223; "MC32P7351.c"	}
                                           	GOTO	_01049_DS_
                                           _01048_DS_
                                           ;	.line	1225; "MC32P7351.c"	ADCR0 = 0B00000000; 						 //ADC12H8L4
                                           	CLRR	_SL_CNT
                                           ;	.line	1226; "MC32P7351.c"	ADCR1 = 0x80;								 //322V 
                                           	CLRR	_ADCR0
                                           ;	.line	1227; "MC32P7351.c"	ADCR2 = 0xff;								 //15ADCLK 
                                           	MOVAI	0x80
                                           	MOVRA	_ADCR1
                                           ;	.line	1228; "MC32P7351.c"	IO_Init();
                                           	MOVAI	0xff
                                           	MOVRA	_ADCR2
                                           ;	.line	1229; "MC32P7351.c"	P00OE=1;
                                           	CALL	_IO_Init
                                           ;	.line	1230; "MC32P7351.c"	P01OE=1;
                                           	BSET	_OEP0bits,0
                                           ;	.line	1231; "MC32P7351.c"	P02OE=1;
                                           	BSET	_OEP0bits,1
                                           ;	.line	1232; "MC32P7351.c"	P03OE=1;
                                           	BSET	_OEP0bits,2
                                           ;	.line	1233; "MC32P7351.c"	P15OE=1;
                                           	BSET	_OEP0bits,3
                                           ;	.line	1234; "MC32P7351.c"	ClrWdt();		
                                           	BSET	_OEP1bits,5
                                           ;	.line	1236; "MC32P7351.c"	GIE = 0;	//
                                           	clrwdt
                                           ;	.line	1237; "MC32P7351.c"	T0EN = 0;
                                           	BCLR	_MCRbits,7
                                           ;	.line	1238; "MC32P7351.c"	T0IE = 0;
                                           	BCLR	_T0CRbits,7
                                           ;	.line	1239; "MC32P7351.c"	P1KBCR = 0b00001010;	//P14
                                           	BCLR	_INTEbits,0
                                           ;	.line	1240; "MC32P7351.c"	KBIE = 1;				//
                                           	MOVAI	0x0a
                                           	MOVRA	_P1KBCR
                                           ;	.line	1241; "MC32P7351.c"	Nop();
                                           	BSET	_INTEbits,4
                                           ;	.line	1242; "MC32P7351.c"	Nop();
                                           	nop
                                           ;	.line	1243; "MC32P7351.c"	Nop();
                                           	nop
                                           ;	.line	1244; "MC32P7351.c"	Stop(); 				//
                                           	nop
                                           ;	.line	1245; "MC32P7351.c"	Nop();
                                           	stop
                                           ;	.line	1246; "MC32P7351.c"	Nop();
                                           	nop
                                           ;	.line	1247; "MC32P7351.c"	ClrWdt();		
                                           	nop
                                           ;	.line	1248; "MC32P7351.c"	KBIE = 0;				//
                                           	clrwdt
                                           ;	.line	1249; "MC32P7351.c"	P1KBCR = 0b00000000;	//
                                           	BCLR	_INTEbits,4
                                           ;	.line	1250; "MC32P7351.c"	IO_Init();
                                           	CLRR	_P1KBCR
                                           ;	.line	1251; "MC32P7351.c"	TIMER0_INT_Init();		//T0
                                           	CALL	_IO_Init
                                           ;	.line	1252; "MC32P7351.c"	TIMER1_PWM_Init();
                                           	CALL	_TIMER0_INT_Init
                                           ;	.line	1253; "MC32P7351.c"	GIE = 1;				//
                                           	CALL	_TIMER1_PWM_Init
                                           ;	.line	1254; "MC32P7351.c"	Nop();
                                           	BSET	_MCRbits,7
                                           ;	.line	1255; "MC32P7351.c"	Nop();
                                           	nop
                                           ;	.line	1256; "MC32P7351.c"	
                                           	nop
                                           _01049_DS_
                                           ;	.line	1259; "MC32P7351.c"	
                                           	RETURN	
                                           ; exit point of _SCAN_SLEEP_CTR
                                           
                                           ;***
                                           ;  pBlock Stats: dbName = C
                                           ;***
                                           ;entry:  _ADC_Zero_ADJ	;Function start
                                           ; 2 exit points
                                           ;has an exit
                                           ;2 compiler assigned registers:
                                           ;   r0x103E
                                           ;   r0x103F
                                           ;; Starting pCode block
                                           _ADC_Zero_ADJ	;Function start
                                           ; 2 exit points
                                           ;	.line	1149; "MC32P7351.c"	ADCR1 = 0x80;                                //322V
                                           	MOVAI	0xeb
                                           	MOVRA	_ADCR0
                                           ;	.line	1150; "MC32P7351.c"	ADCR2 = 0xff;                                //15ADCLK
                                           	MOVAI	0x80
                                           	MOVRA	_ADCR1
                                           ;	.line	1151; "MC32P7351.c"	OSADJCR |= DEF_SET_BIT7;                     //
                                           	MOVAI	0xff
                                           	MOVRA	_ADCR2
                                           ;	.line	1152; "MC32P7351.c"	ADEOC = 0;
                                           	BSET	_OSADJCR,7
                                           ;	.line	1153; "MC32P7351.c"	while (!ADEOC);
                                           	BCLR	_ADCR0bits,1
                                           _00909_DS_
                                           ;	.line	1154; "MC32P7351.c"	if ((ADRH == 0) && ((ADRL & 0x0F) == 0))     //0
                                           	JBSET	_ADCR0bits,1
                                           	GOTO	_00909_DS_
                                           ;	.line	1155; "MC32P7351.c"	{
                                           	MOVAI	0x00
                                           	ORAR	_ADRH
                                           	JBSET	PFLAG,2
                                           	GOTO	_00941_DS_
                                           	MOVAR	_ADRL
                                           	MOVRA	r0x103E
                                           	MOVAR	r0x103E
                                           	ANDAI	0x0f
                                           	JBSET	PFLAG,2
                                           	GOTO	_00941_DS_
                                           ;	.line	1157; "MC32P7351.c"	OSADJCR |= 0x3F;
                                           	BSET	_OSADJCRbits,6
                                           ;	.line	1158; "MC32P7351.c"	ADEOC = 0;
                                           	MOVAI	0x3f
                                           	ORRA	_OSADJCR
                                           ;	.line	1159; "MC32P7351.c"	while (!ADEOC);
                                           	BCLR	_ADCR0bits,1
                                           _00912_DS_
                                           ;	.line	1160; "MC32P7351.c"	if ((ADRH == 0) && ((ADRL & 0x0F) == 0)) //0
                                           	JBSET	_ADCR0bits,1
                                           	GOTO	_00912_DS_
                                           ;	.line	1161; "MC32P7351.c"	{
                                           	MOVAI	0x00
                                           	ORAR	_ADRH
                                           	JBSET	PFLAG,2
                                           	GOTO	_00925_DS_
                                           	MOVAR	_ADRL
                                           	MOVRA	r0x103E
                                           	MOVAR	r0x103E
                                           	ANDAI	0x0f
                                           	JBSET	PFLAG,2
                                           	GOTO	_00925_DS_
                                           ;	.line	1163; "MC32P7351.c"	return PASS;
                                           	BCLR	_ADCR0bits,0
                                           ;	.line	1164; "MC32P7351.c"	}
                                           	MOVAI	0x00
                                           	GOTO	_00947_DS_
                                           _00925_DS_
                                           ;	.line	1170; "MC32P7351.c"	{
                                           	MOVAR	_OSADJCR
                                           	MOVRA	r0x103E
                                           	MOVAR	r0x103E
                                           	ANDAI	0x3f
                                           	JBSET	PFLAG,2
                                           	GOTO	_01033_DS_
                                           	GOTO	_00922_DS_
                                           _01033_DS_
                                           ;	.line	1172; "MC32P7351.c"	ADEOC = 0;
                                           	DECR	_OSADJCR
                                           ;	.line	1173; "MC32P7351.c"	while (!ADEOC);
                                           	BCLR	_ADCR0bits,1
                                           _00915_DS_
                                           ;	.line	1174; "MC32P7351.c"	if ((ADRH == 0) && ((ADRL & 0x0F) == 0))//0
                                           	JBSET	_ADCR0bits,1
                                           	GOTO	_00915_DS_
                                           ;	.line	1175; "MC32P7351.c"	{
                                           	MOVAI	0x00
                                           	ORAR	_ADRH
                                           	JBSET	PFLAG,2
                                           	GOTO	_00925_DS_
                                           	MOVAR	_ADRL
                                           	MOVRA	r0x103E
                                           	MOVAR	r0x103E
                                           	ANDAI	0x0f
                                           	JBSET	PFLAG,2
                                           	GOTO	_00925_DS_
                                           ;	.line	1177; "MC32P7351.c"	return PASS;
                                           	BCLR	_ADCR0bits,0
                                           ;	.line	1178; "MC32P7351.c"	}
                                           	MOVAI	0x00
                                           	GOTO	_00947_DS_
                                           _00922_DS_
                                           ;	.line	1183; "MC32P7351.c"	return FAIL;
                                           	BCLR	_ADCR0bits,0
                                           ;	.line	1184; "MC32P7351.c"	}
                                           	MOVAI	0x01
                                           	GOTO	_00947_DS_
                                           _00941_DS_
                                           ;	.line	1193; "MC32P7351.c"	{
                                           	MOVAR	_OSADJCR
                                           	MOVRA	r0x103E
                                           	CLRR	r0x103F
                                           	MOVAI	0x3f
                                           	ANDRA	r0x103E
                                           	CLRR	r0x103F
                                           	MOVAR	r0x103E
                                           	XORAI	0x3f
                                           	JBSET	PFLAG,2
                                           	GOTO	_00938_DS_
                                           	MOVAR	r0x103F
                                           	XORAI	0x00
                                           	JBSET	PFLAG,2
                                           	GOTO	_00938_DS_
                                           ;	.line	1195; "MC32P7351.c"	return FAIL;
                                           	BCLR	_ADCR0bits,0
                                           ;	.line	1196; "MC32P7351.c"	}
                                           	MOVAI	0x01
                                           	GOTO	_00947_DS_
                                           _00938_DS_
                                           ;	.line	1200; "MC32P7351.c"	ADEOC = 0;
                                           	INCR	_OSADJCR
                                           ;	.line	1201; "MC32P7351.c"	while (!ADEOC);
                                           	BCLR	_ADCR0bits,1
                                           _00931_DS_
                                           ;	.line	1202; "MC32P7351.c"	if ((ADRH == 0) && ((ADRL & 0x0F) == 0))//0
                                           	JBSET	_ADCR0bits,1
                                           	GOTO	_00931_DS_
                                           ;	.line	1203; "MC32P7351.c"	{
                                           	MOVAI	0x00
                                           	ORAR	_ADRH
                                           	JBSET	PFLAG,2
                                           	GOTO	_00941_DS_
                                           	MOVAR	_ADRL
                                           	MOVRA	r0x103E
                                           	MOVAR	r0x103E
                                           	ANDAI	0x0f
                                           	JBSET	PFLAG,2
                                           	GOTO	_00941_DS_
                                           ;	.line	1205; "MC32P7351.c"	return PASS;
                                           	BCLR	_ADCR0bits,0
                                           ;	.line	1206; "MC32P7351.c"	}
                                           	MOVAI	0x00
                                           _00947_DS_
                                           ;	.line	1211; "MC32P7351.c"	void SCAN_SLEEP_CTR(void)
                                           	RETURN	
                                           ; exit point of _ADC_Zero_ADJ
                                           
                                           ;***
                                           ;  pBlock Stats: dbName = C
                                           ;***
                                           ;entry:  _ADC_Power_On_Stability	;Function start
                                           ; 2 exit points
                                           ;has an exit
                                           ;2 compiler assigned registers:
                                           ;   r0x1040
                                           ;   r0x1041
                                           ;; Starting pCode block
                                           _ADC_Power_On_Stability	;Function start
                                           ; 2 exit points
                                           ;	.line	1125; "MC32P7351.c"	ADCR1 = 0x80;                      //32VDD
                                           	MOVAI	0xab
                                           	MOVRA	_ADCR0
                                           ;	.line	1126; "MC32P7351.c"	ADCR2 = 0xff;                      //15ADCLK
                                           	MOVAI	0x80
                                           	MOVRA	_ADCR1
                                           ;	.line	1127; "MC32P7351.c"	ADEOC = 0;
                                           	MOVAI	0xff
                                           	MOVRA	_ADCR2
                                           ;	.line	1128; "MC32P7351.c"	while (!ADEOC);
                                           	BCLR	_ADCR0bits,1
                                           _00857_DS_
                                           ;	.line	1129; "MC32P7351.c"	cnt = 0;
                                           	JBSET	_ADCR0bits,1
                                           	GOTO	_00857_DS_
                                           ;	.line	1131; "MC32P7351.c"	{
                                           	CLRR	r0x1040
                                           ;;shiftRight_Left2ResultLit:5339: shCount=1, size=1, sign=0, same=0, offr=0
                                           _00866_DS_
                                           	BCLR	PFLAG,0
                                           	RRAR	_ADRH
                                           	MOVRA	r0x1041
                                           ;;shiftRight_Left2ResultLit:5339: shCount=1, size=1, sign=0, same=1, offr=0
                                           	BCLR	PFLAG,0
                                           	RRR	r0x1041
                                           	MOVAR	r0x1041
                                           	XORAI	0x10
                                           	JBSET	PFLAG,2
                                           	GOTO	_00903_DS_
                                           	GOTO	_00869_DS_
                                           ;;shiftRight_Left2ResultLit:5339: shCount=1, size=1, sign=0, same=0, offr=0
                                           _00903_DS_
                                           	BCLR	PFLAG,0
                                           	RRAR	_ADRH
                                           	MOVRA	r0x1041
                                           ;;shiftRight_Left2ResultLit:5339: shCount=1, size=1, sign=0, same=1, offr=0
                                           	BCLR	PFLAG,0
                                           	RRR	r0x1041
                                           	MOVAR	r0x1041
                                           	XORAI	0x0f
                                           	JBSET	PFLAG,2
                                           	GOTO	_00904_DS_
                                           	GOTO	_00869_DS_
                                           _00904_DS_
                                           ;	.line	1133; "MC32P7351.c"	while (!ADEOC);
                                           	BCLR	_ADCR0bits,1
                                           _00860_DS_
                                           ;	.line	1134; "MC32P7351.c"	cnt ++;
                                           	JBSET	_ADCR0bits,1
                                           	GOTO	_00860_DS_
                                           ;	.line	1135; "MC32P7351.c"	if (cnt >= 200)
                                           	INCR	r0x1040
                                           ;;unsigned compare: left < lit(0xC8=200), size=1
                                           ;	.line	1136; "MC32P7351.c"	return;                    //,
                                           	MOVAI	0xc8
                                           	RSUBAR	r0x1040
                                           	JBSET	PFLAG,0
                                           	GOTO	_00866_DS_
                                           ;;genSkipc:3291: created from rifx:013B5EFC
                                           _00869_DS_
                                           ;	.line	1139; "MC32P7351.c"	/************************************************
                                           	RETURN	
                                           ; exit point of _ADC_Power_On_Stability
                                           
                                           ;***
                                           ;  pBlock Stats: dbName = C
                                           ;***
                                           ;entry:  _SCAN_HOT_BAT_AD	;Function start
                                           ; 2 exit points
                                           ;has an exit
                                           ;functions called:
                                           ;   __divuint
                                           ;   __divuint
                                           ;   __divuint
                                           ;   __divuint
                                           ;   __divuint
                                           ;   __divuint
                                           ;9 compiler assigned registers:
                                           ;   r0x1042
                                           ;   r0x1043
                                           ;   r0x1044
                                           ;   r0x1045
                                           ;   r0x1046
                                           ;   r0x1047
                                           ;   STK02
                                           ;   STK01
                                           ;   STK00
                                           ;; Starting pCode block
                                           _SCAN_HOT_BAT_AD	;Function start
                                           ; 2 exit points
                                           ;	.line	870; "MC32P7351.c"	{
                                           	MOVAI	0x00
                                           	ORAR	_AD_MODE
                                           	JBSET	PFLAG,2
                                           	GOTO	_00682_DS_
                                           ;	.line	872; "MC32P7351.c"	ADCR1 = 0x80;					   //322V
                                           	MOVAI	0xab
                                           	MOVRA	_ADCR0
                                           ;	.line	873; "MC32P7351.c"	ADCR2 = 0xff;					   //15ADCLK
                                           	MOVAI	0x80
                                           	MOVRA	_ADCR1
                                           ;	.line	874; "MC32P7351.c"	}
                                           	MOVAI	0xff
                                           	MOVRA	_ADCR2
                                           	GOTO	_00683_DS_
                                           _00682_DS_
                                           ;	.line	876; "MC32P7351.c"	{
                                           	MOVAR	_AD_MODE
                                           	XORAI	0x01
                                           	JBSET	PFLAG,2
                                           	GOTO	_00679_DS_
                                           ;	.line	878; "MC32P7351.c"	{
                                           	JBCLR	_KEY_FLAG,2
                                           	GOTO	_00632_DS_
                                           	JBCLR	_flag1,2
                                           	GOTO	_00632_DS_
                                           	JBCLR	_flag1,3
                                           	GOTO	_00633_DS_
                                           _00632_DS_
                                           ;	.line	880; "MC32P7351.c"	WAIT_ADC_CHANGE=0;
                                           	BCLR	_ADCR0bits,1
                                           ;	.line	881; "MC32P7351.c"	GET_ADC_ERROR=0;
                                           	CLRR	_WAIT_ADC_CHANGE
                                           	CLRR	(_WAIT_ADC_CHANGE + 1)
                                           ;	.line	882; "MC32P7351.c"	GET_ADC_OK=1;
                                           	BCLR	_KEY_FLAG,3
                                           ;	.line	883; "MC32P7351.c"	g_temp_value=0;
                                           	BSET	_KEY_FLAG,4
                                           ;	.line	884; "MC32P7351.c"	while(!ADEOC)
                                           	CLRR	_g_temp_value
                                           	CLRR	(_g_temp_value + 1)
                                           _00599_DS_
                                           ;	.line	886; "MC32P7351.c"	{
                                           	JBCLR	_ADCR0bits,1
                                           	GOTO	_00601_DS_
                                           ;	.line	888; "MC32P7351.c"	if(WAIT_ADC_CHANGE>1500)
                                           	INCR	_WAIT_ADC_CHANGE
                                           	JBCLR	PFLAG,2
                                           	INCR	(_WAIT_ADC_CHANGE + 1)
                                           ;;swapping arguments (AOP_TYPEs 1/3)
                                           ;;unsigned compare: left >= lit(0x5DD=1501), size=2
                                           ;	.line	889; "MC32P7351.c"	{
                                           	MOVAI	0x05
                                           	RSUBAR	(_WAIT_ADC_CHANGE + 1)
                                           	JBSET	PFLAG,2
                                           	GOTO	_00836_DS_
                                           	MOVAI	0xdd
                                           	RSUBAR	_WAIT_ADC_CHANGE
                                           _00836_DS_
                                           	JBSET	PFLAG,0
                                           	GOTO	_00599_DS_
                                           ;;genSkipc:3291: created from rifx:013B5EFC
                                           ;	.line	891; "MC32P7351.c"	GET_ADC_ERROR=1;
                                           	CLRR	_WAIT_ADC_CHANGE
                                           	CLRR	(_WAIT_ADC_CHANGE + 1)
                                           ;	.line	892; "MC32P7351.c"	GET_ADC_OK=0;
                                           	BSET	_KEY_FLAG,3
                                           ;	.line	893; "MC32P7351.c"	return;
                                           	BCLR	_KEY_FLAG,4
                                           ;	.line	894; "MC32P7351.c"	}
                                           	GOTO	_00686_DS_
                                           _00601_DS_
                                           ;	.line	898; "MC32P7351.c"	{
                                           	JBSET	_KEY_FLAG,4
                                           	GOTO	_00630_DS_
                                           ;	.line	900; "MC32P7351.c"	g_temp_value = ADRH;
                                           	BCLR	_KEY_FLAG,4
                                           ;	.line	901; "MC32P7351.c"	g_temp_value = g_temp_value << 4 | (ADRL & 0x0f);
                                           	MOVAR	_ADRH
                                           	MOVRA	_g_temp_value
                                           	CLRR	(_g_temp_value + 1)
                                           ;	.line	902; "MC32P7351.c"	W_OVER_ALL1+=g_temp_value;
                                           	SWAPAR	(_g_temp_value + 1)
                                           	ANDAI	0xf0
                                           	MOVRA	r0x1042
                                           	SWAPAR	_g_temp_value
                                           	MOVRA	r0x1043
                                           	ANDAI	0x0f
                                           	ORRA	r0x1042
                                           	XORRA	r0x1043
                                           	MOVAR	_ADRL
                                           	MOVRA	r0x1044
                                           	CLRR	r0x1045
                                           	MOVAI	0x0f
                                           	ANDRA	r0x1044
                                           	CLRR	r0x1045
                                           ;;107	MOVAR	r0x1044
                                           	MOVAI	0x00
                                           	MOVRA	r0x1047
                                           ;;106	MOVAR	r0x1046
                                           	MOVAR	r0x1044
                                           	MOVRA	r0x1046
                                           	ORAR	r0x1043
                                           	MOVRA	_g_temp_value
                                           	MOVAR	r0x1047
                                           	ORAR	r0x1042
                                           	MOVRA	(_g_temp_value + 1)
                                           ;	.line	904; "MC32P7351.c"	R_AD_CNT1++;
                                           	MOVAR	_g_temp_value
                                           	ADDRA	_W_OVER_ALL1
                                           	MOVAR	(_g_temp_value + 1)
                                           	JBCLR	PFLAG,0
                                           	JZAR	(_g_temp_value + 1)
                                           	ADDRA	(_W_OVER_ALL1 + 1)
                                           ;	.line	905; "MC32P7351.c"	if(R_AD_CNT1>7)
                                           	INCR	_R_AD_CNT1
                                           ;;swapping arguments (AOP_TYPEs 1/3)
                                           ;;unsigned compare: left >= lit(0x8=8), size=1
                                           ;	.line	906; "MC32P7351.c"	{
                                           	MOVAI	0x08
                                           	RSUBAR	_R_AD_CNT1
                                           	JBSET	PFLAG,0
                                           	GOTO	_00683_DS_
                                           ;;genSkipc:3291: created from rifx:013B5EFC
                                           ;	.line	908; "MC32P7351.c"	W_OVER_ALL1 = W_OVER_ALL1>>3;
                                           	CLRR	_R_AD_CNT1
                                           ;;shiftRight_Left2ResultLit:5339: shCount=1, size=2, sign=0, same=1, offr=0
                                           ;	.line	909; "MC32P7351.c"	/*
                                           	BCLR	PFLAG,0
                                           	RRR	(_W_OVER_ALL1 + 1)
                                           	RRR	_W_OVER_ALL1
                                           ;;shiftRight_Left2ResultLit:5339: shCount=1, size=2, sign=0, same=1, offr=0
                                           	BCLR	PFLAG,0
                                           	RRR	(_W_OVER_ALL1 + 1)
                                           	RRR	_W_OVER_ALL1
                                           ;;shiftRight_Left2ResultLit:5339: shCount=1, size=2, sign=0, same=1, offr=0
                                           	BCLR	PFLAG,0
                                           	RRR	(_W_OVER_ALL1 + 1)
                                           	RRR	_W_OVER_ALL1
                                           ;	.line	915; "MC32P7351.c"	{
                                           	JBCLR	_flag1,3
                                           	GOTO	_00625_DS_
                                           ;	.line	917; "MC32P7351.c"	if(BAT_CNT5>19)
                                           	INCR	_BAT_CNT5
                                           ;;swapping arguments (AOP_TYPEs 1/3)
                                           ;;unsigned compare: left >= lit(0x14=20), size=1
                                           ;	.line	918; "MC32P7351.c"	{
                                           	MOVAI	0x14
                                           	RSUBAR	_BAT_CNT5
                                           	JBSET	PFLAG,0
                                           	GOTO	_00626_DS_
                                           ;;genSkipc:3291: created from rifx:013B5EFC
                                           ;	.line	920; "MC32P7351.c"	if(W_OVER_ALL1<1587)		//3.1v
                                           	CLRR	_BAT_CNT5
                                           ;;unsigned compare: left < lit(0x633=1587), size=2
                                           ;	.line	921; "MC32P7351.c"	{
                                           	MOVAI	0x06
                                           	RSUBAR	(_W_OVER_ALL1 + 1)
                                           	JBSET	PFLAG,2
                                           	GOTO	_00839_DS_
                                           	MOVAI	0x33
                                           	RSUBAR	_W_OVER_ALL1
                                           _00839_DS_
                                           	JBCLR	PFLAG,0
                                           	GOTO	_00606_DS_
                                           ;;genSkipc:3291: created from rifx:013B5EFC
                                           ;	.line	923; "MC32P7351.c"	B_LOW_POWER_F=1;
                                           	CLRR	_BUFF_BAT_VALUE
                                           	CLRR	(_BUFF_BAT_VALUE + 1)
                                           ;	.line	924; "MC32P7351.c"	}
                                           	BSET	_flag2,0
                                           	GOTO	_00607_DS_
                                           ;;swapping arguments (AOP_TYPEs 1/3)
                                           ;;unsigned compare: left >= lit(0x801=2049), size=2
                                           _00606_DS_
                                           ;	.line	926; "MC32P7351.c"	{
                                           	MOVAI	0x08
                                           	RSUBAR	(_W_OVER_ALL1 + 1)
                                           	JBSET	PFLAG,2
                                           	GOTO	_00840_DS_
                                           	MOVAI	0x01
                                           	RSUBAR	_W_OVER_ALL1
                                           _00840_DS_
                                           	JBSET	PFLAG,0
                                           	GOTO	_00603_DS_
                                           ;;genSkipc:3291: created from rifx:013B5EFC
                                           ;	.line	928; "MC32P7351.c"	}
                                           	MOVAI	0x64
                                           	MOVRA	_BUFF_BAT_VALUE
                                           	CLRR	(_BUFF_BAT_VALUE + 1)
                                           	GOTO	_00607_DS_
                                           _00603_DS_
                                           ;	.line	933; "MC32P7351.c"	BUFF_BAT_VALUE=W_OVER_ALL1/5;
                                           	MOVAI	0xcd
                                           	ADDRA	_W_OVER_ALL1
                                           	MOVAI	0xf9
                                           	JBCLR	PFLAG,0
                                           	MOVAI	0xfa
                                           	ADDRA	(_W_OVER_ALL1 + 1)
                                           ;	.line	934; "MC32P7351.c"	}
                                           	MOVAI	0x05
                                           	MOVRA	STK02
                                           	MOVAI	0x00
                                           	MOVRA	STK01
                                           	MOVAR	_W_OVER_ALL1
                                           	MOVRA	STK00
                                           	MOVAR	(_W_OVER_ALL1 + 1)
                                           	CALL	__divuint
                                           	MOVRA	(_BUFF_BAT_VALUE + 1)
                                           	MOVAR	STK00
                                           	MOVRA	_BUFF_BAT_VALUE
                                           _00607_DS_
                                           ;	.line	937; "MC32P7351.c"	B_UP_POWER_CK=1;
                                           	MOVAR	_BUFF_BAT_VALUE
                                           	MOVRA	_SET_BAT_VALUE
                                           	MOVAR	(_BUFF_BAT_VALUE + 1)
                                           	MOVRA	(_SET_BAT_VALUE + 1)
                                           ;	.line	938; "MC32P7351.c"	//BAT_CHECK_F=0;
                                           	BSET	_flag1,3
                                           	GOTO	_00626_DS_
                                           _00625_DS_
                                           ;	.line	943; "MC32P7351.c"	{
                                           	JBSET	_flag1,2
                                           	GOTO	_00622_DS_
                                           ;	.line	945; "MC32P7351.c"	{
                                           	JBSET	_flag1,6
                                           	GOTO	_00613_DS_
                                           ;	.line	947; "MC32P7351.c"	}
                                           	MOVAI	0x64
                                           	MOVRA	_BUFF_BAT_VALUE
                                           	CLRR	(_BUFF_BAT_VALUE + 1)
                                           	GOTO	_00626_DS_
                                           _00613_DS_
                                           ;	.line	951; "MC32P7351.c"	BUFF_BAT_VALUE=W_OVER_ALL1/5;
                                           	MOVAI	0xcd
                                           	ADDRA	_W_OVER_ALL1
                                           	MOVAI	0xf9
                                           	JBCLR	PFLAG,0
                                           	MOVAI	0xfa
                                           	ADDRA	(_W_OVER_ALL1 + 1)
                                           ;	.line	952; "MC32P7351.c"	if(BUFF_BAT_VALUE>99)
                                           	MOVAI	0x05
                                           	MOVRA	STK02
                                           	MOVAI	0x00
                                           	MOVRA	STK01
                                           	MOVAR	_W_OVER_ALL1
                                           	MOVRA	STK00
                                           	MOVAR	(_W_OVER_ALL1 + 1)
                                           	CALL	__divuint
                                           	MOVRA	(_BUFF_BAT_VALUE + 1)
                                           	MOVAR	STK00
                                           	MOVRA	_BUFF_BAT_VALUE
                                           ;;swapping arguments (AOP_TYPEs 1/3)
                                           ;;unsigned compare: left >= lit(0x64=100), size=2
                                           ;	.line	953; "MC32P7351.c"	{
                                           	MOVAI	0x00
                                           	RSUBAR	(_BUFF_BAT_VALUE + 1)
                                           	JBSET	PFLAG,2
                                           	GOTO	_00841_DS_
                                           	MOVAI	0x64
                                           	RSUBAR	_BUFF_BAT_VALUE
                                           _00841_DS_
                                           	JBSET	PFLAG,0
                                           	GOTO	_00626_DS_
                                           ;;genSkipc:3291: created from rifx:013B5EFC
                                           ;	.line	955; "MC32P7351.c"	}
                                           	MOVAI	0x63
                                           	MOVRA	_BUFF_BAT_VALUE
                                           	CLRR	(_BUFF_BAT_VALUE + 1)
                                           	GOTO	_00626_DS_
                                           ;;unsigned compare: left < lit(0x633=1587), size=2
                                           _00622_DS_
                                           ;	.line	962; "MC32P7351.c"	{
                                           	MOVAI	0x06
                                           	RSUBAR	(_W_OVER_ALL1 + 1)
                                           	JBSET	PFLAG,2
                                           	GOTO	_00842_DS_
                                           	MOVAI	0x33
                                           	RSUBAR	_W_OVER_ALL1
                                           _00842_DS_
                                           	JBCLR	PFLAG,0
                                           	GOTO	_00619_DS_
                                           ;;genSkipc:3291: created from rifx:013B5EFC
                                           ;	.line	964; "MC32P7351.c"	B_LOW_POWER_F=1;
                                           	CLRR	_BUFF_BAT_VALUE
                                           	CLRR	(_BUFF_BAT_VALUE + 1)
                                           ;	.line	965; "MC32P7351.c"	}
                                           	BSET	_flag2,0
                                           	GOTO	_00626_DS_
                                           ;;swapping arguments (AOP_TYPEs 1/3)
                                           ;;unsigned compare: left >= lit(0x801=2049), size=2
                                           _00619_DS_
                                           ;	.line	967; "MC32P7351.c"	{
                                           	MOVAI	0x08
                                           	RSUBAR	(_W_OVER_ALL1 + 1)
                                           	JBSET	PFLAG,2
                                           	GOTO	_00843_DS_
                                           	MOVAI	0x01
                                           	RSUBAR	_W_OVER_ALL1
                                           _00843_DS_
                                           	JBSET	PFLAG,0
                                           	GOTO	_00616_DS_
                                           ;;genSkipc:3291: created from rifx:013B5EFC
                                           ;	.line	969; "MC32P7351.c"	}
                                           	MOVAI	0x64
                                           	MOVRA	_BUFF_BAT_VALUE
                                           	CLRR	(_BUFF_BAT_VALUE + 1)
                                           	GOTO	_00626_DS_
                                           _00616_DS_
                                           ;	.line	973; "MC32P7351.c"	BUFF_BAT_VALUE=W_OVER_ALL1/5;
                                           	MOVAI	0xcd
                                           	ADDRA	_W_OVER_ALL1
                                           	MOVAI	0xf9
                                           	JBCLR	PFLAG,0
                                           	MOVAI	0xfa
                                           	ADDRA	(_W_OVER_ALL1 + 1)
                                           ;	.line	974; "MC32P7351.c"	}
                                           	MOVAI	0x05
                                           	MOVRA	STK02
                                           	MOVAI	0x00
                                           	MOVRA	STK01
                                           	MOVAR	_W_OVER_ALL1
                                           	MOVRA	STK00
                                           	MOVAR	(_W_OVER_ALL1 + 1)
                                           	CALL	__divuint
                                           	MOVRA	(_BUFF_BAT_VALUE + 1)
                                           	MOVAR	STK00
                                           	MOVRA	_BUFF_BAT_VALUE
                                           _00626_DS_
                                           ;	.line	979; "MC32P7351.c"	}
                                           	CLRR	_W_OVER_ALL1
                                           	CLRR	(_W_OVER_ALL1 + 1)
                                           	GOTO	_00683_DS_
                                           _00630_DS_
                                           ;	.line	984; "MC32P7351.c"	R_AD_CNT1=0;
                                           	CLRR	_W_OVER_ALL1
                                           	CLRR	(_W_OVER_ALL1 + 1)
                                           ;	.line	985; "MC32P7351.c"	g_temp_value=0;
                                           	CLRR	_R_AD_CNT1
                                           ;	.line	986; "MC32P7351.c"	}
                                           	CLRR	_g_temp_value
                                           	CLRR	(_g_temp_value + 1)
                                           	GOTO	_00683_DS_
                                           _00633_DS_
                                           ;	.line	991; "MC32P7351.c"	R_AD_CNT1=0;
                                           	CLRR	_W_OVER_ALL1
                                           	CLRR	(_W_OVER_ALL1 + 1)
                                           ;	.line	992; "MC32P7351.c"	g_temp_value=0;
                                           	CLRR	_R_AD_CNT1
                                           ;	.line	993; "MC32P7351.c"	}
                                           	CLRR	_g_temp_value
                                           	CLRR	(_g_temp_value + 1)
                                           	GOTO	_00683_DS_
                                           _00679_DS_
                                           ;	.line	997; "MC32P7351.c"	{
                                           	MOVAR	_AD_MODE
                                           	XORAI	0x02
                                           	JBSET	PFLAG,2
                                           	GOTO	_00676_DS_
                                           ;	.line	999; "MC32P7351.c"	ADCR1 = 0x80;					   //322V
                                           	MOVAI	0x3b
                                           	MOVRA	_ADCR0
                                           ;	.line	1000; "MC32P7351.c"	ADCR2 = 0xff;					   //15ADCLK
                                           	MOVAI	0x80
                                           	MOVRA	_ADCR1
                                           ;	.line	1001; "MC32P7351.c"	}
                                           	MOVAI	0xff
                                           	MOVRA	_ADCR2
                                           	GOTO	_00683_DS_
                                           _00676_DS_
                                           ;	.line	1003; "MC32P7351.c"	{
                                           	MOVAR	_AD_MODE
                                           	XORAI	0x03
                                           	JBSET	PFLAG,2
                                           	GOTO	_00683_DS_
                                           ;	.line	1005; "MC32P7351.c"	{
                                           	JBCLR	_KEY_FLAG,2
                                           	GOTO	_00669_DS_
                                           	JBSET	_flag1,2
                                           	GOTO	_00670_DS_
                                           _00669_DS_
                                           ;	.line	1007; "MC32P7351.c"	WAIT_ADC_CHANGE1=0;
                                           	BCLR	_ADCR0bits,1
                                           ;	.line	1008; "MC32P7351.c"	GET_ADC_ERROR=0;
                                           	CLRR	_WAIT_ADC_CHANGE1
                                           	CLRR	(_WAIT_ADC_CHANGE1 + 1)
                                           ;	.line	1009; "MC32P7351.c"	GET_ADC_OK=1;
                                           	BCLR	_KEY_FLAG,3
                                           ;	.line	1010; "MC32P7351.c"	g_temp_value1=0;
                                           	BSET	_KEY_FLAG,4
                                           ;	.line	1011; "MC32P7351.c"	while(!ADEOC)
                                           	CLRR	_g_temp_value1
                                           	CLRR	(_g_temp_value1 + 1)
                                           _00639_DS_
                                           ;	.line	1013; "MC32P7351.c"	{
                                           	JBCLR	_ADCR0bits,1
                                           	GOTO	_00641_DS_
                                           ;	.line	1015; "MC32P7351.c"	if(WAIT_ADC_CHANGE1>1500)
                                           	INCR	_WAIT_ADC_CHANGE1
                                           	JBCLR	PFLAG,2
                                           	INCR	(_WAIT_ADC_CHANGE1 + 1)
                                           ;;swapping arguments (AOP_TYPEs 1/3)
                                           ;;unsigned compare: left >= lit(0x5DD=1501), size=2
                                           ;	.line	1016; "MC32P7351.c"	{
                                           	MOVAI	0x05
                                           	RSUBAR	(_WAIT_ADC_CHANGE1 + 1)
                                           	JBSET	PFLAG,2
                                           	GOTO	_00844_DS_
                                           	MOVAI	0xdd
                                           	RSUBAR	_WAIT_ADC_CHANGE1
                                           _00844_DS_
                                           	JBSET	PFLAG,0
                                           	GOTO	_00639_DS_
                                           ;;genSkipc:3291: created from rifx:013B5EFC
                                           ;	.line	1018; "MC32P7351.c"	GET_ADC_ERROR=1;
                                           	CLRR	_WAIT_ADC_CHANGE1
                                           	CLRR	(_WAIT_ADC_CHANGE1 + 1)
                                           ;	.line	1019; "MC32P7351.c"	GET_ADC_OK=0;
                                           	BSET	_KEY_FLAG,3
                                           ;	.line	1020; "MC32P7351.c"	return;
                                           	BCLR	_KEY_FLAG,4
                                           ;	.line	1021; "MC32P7351.c"	}
                                           	GOTO	_00686_DS_
                                           _00641_DS_
                                           ;	.line	1025; "MC32P7351.c"	{
                                           	JBSET	_KEY_FLAG,4
                                           	GOTO	_00667_DS_
                                           ;	.line	1027; "MC32P7351.c"	g_temp_value1 = ADRH;
                                           	BCLR	_KEY_FLAG,4
                                           ;	.line	1028; "MC32P7351.c"	g_temp_value1 = g_temp_value1 << 4 | (ADRL & 0x0f);
                                           	MOVAR	_ADRH
                                           	MOVRA	_g_temp_value1
                                           	CLRR	(_g_temp_value1 + 1)
                                           ;	.line	1029; "MC32P7351.c"	W_OVER_ALL2+=g_temp_value1;
                                           	SWAPAR	(_g_temp_value1 + 1)
                                           	ANDAI	0xf0
                                           	MOVRA	r0x1042
                                           	SWAPAR	_g_temp_value1
                                           	MOVRA	r0x1043
                                           	ANDAI	0x0f
                                           	ORRA	r0x1042
                                           	XORRA	r0x1043
                                           	MOVAR	_ADRL
                                           	MOVRA	r0x1044
                                           	CLRR	r0x1045
                                           	MOVAI	0x0f
                                           	ANDRA	r0x1044
                                           	CLRR	r0x1045
                                           ;;103	MOVAR	r0x1044
                                           	MOVAI	0x00
                                           	MOVRA	r0x1047
                                           ;;102	MOVAR	r0x1046
                                           	MOVAR	r0x1044
                                           	MOVRA	r0x1046
                                           	ORAR	r0x1043
                                           	MOVRA	_g_temp_value1
                                           	MOVAR	r0x1047
                                           	ORAR	r0x1042
                                           	MOVRA	(_g_temp_value1 + 1)
                                           ;	.line	1031; "MC32P7351.c"	R_AD_CNT2++;
                                           	MOVAR	_g_temp_value1
                                           	ADDRA	_W_OVER_ALL2
                                           	MOVAR	(_g_temp_value1 + 1)
                                           	JBCLR	PFLAG,0
                                           	JZAR	(_g_temp_value1 + 1)
                                           	ADDRA	(_W_OVER_ALL2 + 1)
                                           ;	.line	1032; "MC32P7351.c"	if(R_AD_CNT2>7)
                                           	INCR	_R_AD_CNT2
                                           ;;swapping arguments (AOP_TYPEs 1/3)
                                           ;;unsigned compare: left >= lit(0x8=8), size=1
                                           ;	.line	1033; "MC32P7351.c"	{
                                           	MOVAI	0x08
                                           	RSUBAR	_R_AD_CNT2
                                           	JBSET	PFLAG,0
                                           	GOTO	_00683_DS_
                                           ;;genSkipc:3291: created from rifx:013B5EFC
                                           ;	.line	1035; "MC32P7351.c"	W_OVER_ALL2 = W_OVER_ALL2>>3;
                                           	CLRR	_R_AD_CNT2
                                           ;;shiftRight_Left2ResultLit:5339: shCount=1, size=2, sign=0, same=1, offr=0
                                           ;	.line	1036; "MC32P7351.c"	/*
                                           	BCLR	PFLAG,0
                                           	RRR	(_W_OVER_ALL2 + 1)
                                           	RRR	_W_OVER_ALL2
                                           ;;shiftRight_Left2ResultLit:5339: shCount=1, size=2, sign=0, same=1, offr=0
                                           	BCLR	PFLAG,0
                                           	RRR	(_W_OVER_ALL2 + 1)
                                           	RRR	_W_OVER_ALL2
                                           ;;shiftRight_Left2ResultLit:5339: shCount=1, size=2, sign=0, same=1, offr=0
                                           	BCLR	PFLAG,0
                                           	RRR	(_W_OVER_ALL2 + 1)
                                           	RRR	_W_OVER_ALL2
                                           ;;unsigned compare: left < lit(0x800=2048), size=2
                                           ;	.line	1041; "MC32P7351.c"	{
                                           	MOVAI	0x08
                                           	RSUBAR	(_W_OVER_ALL2 + 1)
                                           	JBSET	PFLAG,2
                                           	GOTO	_00846_DS_
                                           	MOVAI	0x00
                                           	RSUBAR	_W_OVER_ALL2
                                           _00846_DS_
                                           	JBCLR	PFLAG,0
                                           	GOTO	_00647_DS_
                                           ;;genSkipc:3291: created from rifx:013B5EFC
                                           ;	.line	1043; "MC32P7351.c"	IN_LOAD_CNT1++;
                                           	CLRR	_IN_LOAD_CNT2
                                           	CLRR	(_IN_LOAD_CNT2 + 1)
                                           ;	.line	1044; "MC32P7351.c"	if(IN_LOAD_CNT1>5)
                                           	INCR	_IN_LOAD_CNT1
                                           	JBCLR	PFLAG,2
                                           	INCR	(_IN_LOAD_CNT1 + 1)
                                           ;;swapping arguments (AOP_TYPEs 1/3)
                                           ;;unsigned compare: left >= lit(0x6=6), size=2
                                           ;	.line	1045; "MC32P7351.c"	{
                                           	MOVAI	0x00
                                           	RSUBAR	(_IN_LOAD_CNT1 + 1)
                                           	JBSET	PFLAG,2
                                           	GOTO	_00847_DS_
                                           	MOVAI	0x06
                                           	RSUBAR	_IN_LOAD_CNT1
                                           _00847_DS_
                                           	JBSET	PFLAG,0
                                           	GOTO	_00648_DS_
                                           ;;genSkipc:3291: created from rifx:013B5EFC
                                           ;	.line	1047; "MC32P7351.c"	}
                                           	CLRR	_IN_LOAD_CNT1
                                           	CLRR	(_IN_LOAD_CNT1 + 1)
                                           	GOTO	_00648_DS_
                                           _00647_DS_
                                           ;	.line	1052; "MC32P7351.c"	IN_LOAD_CNT2++;
                                           	CLRR	_IN_LOAD_CNT1
                                           	CLRR	(_IN_LOAD_CNT1 + 1)
                                           ;	.line	1053; "MC32P7351.c"	if(IN_LOAD_CNT2>5)
                                           	INCR	_IN_LOAD_CNT2
                                           	JBCLR	PFLAG,2
                                           	INCR	(_IN_LOAD_CNT2 + 1)
                                           ;;swapping arguments (AOP_TYPEs 1/3)
                                           ;;unsigned compare: left >= lit(0x6=6), size=2
                                           ;	.line	1054; "MC32P7351.c"	{
                                           	MOVAI	0x00
                                           	RSUBAR	(_IN_LOAD_CNT2 + 1)
                                           	JBSET	PFLAG,2
                                           	GOTO	_00848_DS_
                                           	MOVAI	0x06
                                           	RSUBAR	_IN_LOAD_CNT2
                                           _00848_DS_
                                           	JBSET	PFLAG,0
                                           	GOTO	_00648_DS_
                                           ;;genSkipc:3291: created from rifx:013B5EFC
                                           ;	.line	1056; "MC32P7351.c"	WORK_ON=0;
                                           	CLRR	_IN_LOAD_CNT2
                                           	CLRR	(_IN_LOAD_CNT2 + 1)
                                           ;	.line	1057; "MC32P7351.c"	}
                                           	BCLR	_KEY_FLAG,2
                                           _00648_DS_
                                           ;	.line	1061; "MC32P7351.c"	{
                                           	JBSET	_KEY_FLAG,2
                                           	GOTO	_00663_DS_
                                           ;	.line	1063; "MC32P7351.c"	{
                                           	MOVAR	(_BUFF_OVER_ALL2 + 1)
                                           	RSUBAR	(_W_OVER_ALL2 + 1)
                                           	JBSET	PFLAG,2
                                           	GOTO	_00849_DS_
                                           	MOVAR	_BUFF_OVER_ALL2
                                           	RSUBAR	_W_OVER_ALL2
                                           _00849_DS_
                                           	JBCLR	PFLAG,0
                                           	GOTO	_00660_DS_
                                           ;;genSkipc:3291: created from rifx:013B5EFC
                                           ;	.line	1065; "MC32P7351.c"	MOTO_CNT1++;
                                           	CLRR	_MOTO_CNT2
                                           ;	.line	1066; "MC32P7351.c"	if(MOTO_CNT1>BUFF_M_CNT)
                                           	INCR	_MOTO_CNT1
                                           ;	.line	1067; "MC32P7351.c"	{
                                           	MOVAR	_MOTO_CNT1
                                           	RSUBAR	_BUFF_M_CNT
                                           	JBCLR	PFLAG,0
                                           	GOTO	_00663_DS_
                                           ;;genSkipc:3291: created from rifx:013B5EFC
                                           ;	.line	1069; "MC32P7351.c"	if(BUFF_MOTO<105)
                                           	CLRR	_MOTO_CNT1
                                           ;;unsigned compare: left < lit(0x69=105), size=1
                                           ;	.line	1070; "MC32P7351.c"	{
                                           	MOVAI	0x69
                                           	RSUBAR	_BUFF_MOTO
                                           	JBCLR	PFLAG,0
                                           	GOTO	_00663_DS_
                                           ;;genSkipc:3291: created from rifx:013B5EFC
                                           ;	.line	1072; "MC32P7351.c"	}
                                           	INCR	_BUFF_MOTO
                                           	GOTO	_00663_DS_
                                           _00660_DS_
                                           ;	.line	1076; "MC32P7351.c"	{
                                           	MOVAR	(_W_OVER_ALL2 + 1)
                                           	RSUBAR	(_BUFF_OVER_ALL2 + 1)
                                           	JBSET	PFLAG,2
                                           	GOTO	_00852_DS_
                                           	MOVAR	_W_OVER_ALL2
                                           	RSUBAR	_BUFF_OVER_ALL2
                                           _00852_DS_
                                           	JBCLR	PFLAG,0
                                           	GOTO	_00663_DS_
                                           ;;genSkipc:3291: created from rifx:013B5EFC
                                           ;	.line	1078; "MC32P7351.c"	MOTO_CNT2++;
                                           	CLRR	_MOTO_CNT1
                                           ;	.line	1079; "MC32P7351.c"	if(MOTO_CNT2>BUFF_M_CNT)
                                           	INCR	_MOTO_CNT2
                                           ;	.line	1080; "MC32P7351.c"	{
                                           	MOVAR	_MOTO_CNT2
                                           	RSUBAR	_BUFF_M_CNT
                                           	JBCLR	PFLAG,0
                                           	GOTO	_00663_DS_
                                           ;;genSkipc:3291: created from rifx:013B5EFC
                                           ;	.line	1082; "MC32P7351.c"	if(BUFF_MOTO>0)
                                           	CLRR	_MOTO_CNT2
                                           ;	.line	1083; "MC32P7351.c"	{
                                           	MOVAI	0x00
                                           	ORAR	_BUFF_MOTO
                                           	JBCLR	PFLAG,2
                                           	GOTO	_00663_DS_
                                           ;	.line	1085; "MC32P7351.c"	}
                                           	DECR	_BUFF_MOTO
                                           _00663_DS_
                                           ;	.line	1091; "MC32P7351.c"	}
                                           	CLRR	_W_OVER_ALL2
                                           	CLRR	(_W_OVER_ALL2 + 1)
                                           	GOTO	_00683_DS_
                                           _00667_DS_
                                           ;	.line	1096; "MC32P7351.c"	R_AD_CNT2=0;
                                           	CLRR	_W_OVER_ALL2
                                           	CLRR	(_W_OVER_ALL2 + 1)
                                           ;	.line	1097; "MC32P7351.c"	g_temp_value1=0;
                                           	CLRR	_R_AD_CNT2
                                           ;	.line	1098; "MC32P7351.c"	}
                                           	CLRR	_g_temp_value1
                                           	CLRR	(_g_temp_value1 + 1)
                                           	GOTO	_00683_DS_
                                           _00670_DS_
                                           ;	.line	1103; "MC32P7351.c"	R_AD_CNT2=0;
                                           	CLRR	_W_OVER_ALL2
                                           	CLRR	(_W_OVER_ALL2 + 1)
                                           ;	.line	1104; "MC32P7351.c"	g_temp_value1=0;
                                           	CLRR	_R_AD_CNT2
                                           ;	.line	1105; "MC32P7351.c"	}
                                           	CLRR	_g_temp_value1
                                           	CLRR	(_g_temp_value1 + 1)
                                           _00683_DS_
                                           ;	.line	1109; "MC32P7351.c"	if(AD_MODE>3)
                                           	INCR	_AD_MODE
                                           ;;swapping arguments (AOP_TYPEs 1/3)
                                           ;;unsigned compare: left >= lit(0x4=4), size=1
                                           ;	.line	1110; "MC32P7351.c"	{
                                           	MOVAI	0x04
                                           	RSUBAR	_AD_MODE
                                           	JBSET	PFLAG,0
                                           	GOTO	_00686_DS_
                                           ;;genSkipc:3291: created from rifx:013B5EFC
                                           ;	.line	1112; "MC32P7351.c"	}
                                           	CLRR	_AD_MODE
                                           _00686_DS_
                                           ;	.line	1114; "MC32P7351.c"	/************************************************
                                           	RETURN	
                                           ; exit point of _SCAN_HOT_BAT_AD
                                           
                                           ;***
                                           ;  pBlock Stats: dbName = C
                                           ;***
                                           ;entry:  _SET_DL_DIS	;Function start
                                           ; 2 exit points
                                           ;has an exit
                                           ;functions called:
                                           ;   __modsint
                                           ;   _GET_SMG_VALUE
                                           ;   __modsint
                                           ;   _GET_SMG_VALUE
                                           ;   __divsint
                                           ;   _GET_SMG_VALUE
                                           ;   __modsint
                                           ;   _GET_SMG_VALUE
                                           ;   __modsint
                                           ;   _GET_SMG_VALUE
                                           ;   __divsint
                                           ;   _GET_SMG_VALUE
                                           ;7 compiler assigned registers:
                                           ;   r0x1049
                                           ;   r0x104A
                                           ;   r0x104B
                                           ;   STK02
                                           ;   STK01
                                           ;   STK00
                                           ;   r0x104C
                                           ;; Starting pCode block
                                           _SET_DL_DIS	;Function start
                                           ; 2 exit points
                                           ;	.line	836; "MC32P7351.c"	{
                                           	MOVRA	r0x1049
                                           ;;swapping arguments (AOP_TYPEs 1/2)
                                           ;;unsigned compare: left >= lit(0x64=100), size=1
                                           ;	.line	839; "MC32P7351.c"	{
                                           	MOVAI	0x64
                                           	RSUBAR	r0x1049
                                           	JBSET	PFLAG,0
                                           	GOTO	_00590_DS_
                                           ;;genSkipc:3291: created from rifx:013B5EFC
                                           ;;gen.c:6570: size=0, offset=0, AOP_TYPE(res)=8
                                           ;	.line	841; "MC32P7351.c"	B_SMG_B.byte=0X3F;
                                           	MOVAI	0x3f
                                           	MOVRA	(_B_SMG_S + 0)
                                           ;;gen.c:6570: size=0, offset=0, AOP_TYPE(res)=8
                                           ;	.line	842; "MC32P7351.c"	B_SMG_C.byte=0X03;
                                           	MOVAI	0x3f
                                           	MOVRA	(_B_SMG_B + 0)
                                           ;;gen.c:6570: size=0, offset=0, AOP_TYPE(res)=8
                                           ;	.line	843; "MC32P7351.c"	}
                                           	MOVAI	0x03
                                           	MOVRA	(_B_SMG_C + 0)
                                           	GOTO	_00592_DS_
                                           ;;unsigned compare: left < lit(0xA=10), size=1
                                           _00590_DS_
                                           ;	.line	846; "MC32P7351.c"	{
                                           	MOVAI	0x0a
                                           	RSUBAR	r0x1049
                                           	JBCLR	PFLAG,0
                                           	GOTO	_00587_DS_
                                           ;;genSkipc:3291: created from rifx:013B5EFC
                                           ;;gen.c:6570: size=0, offset=0, AOP_TYPE(res)=8
                                           ;	.line	848; "MC32P7351.c"	B_SMG_C.byte=0X00;
                                           	CLRR	(_B_SMG_S + 0)
                                           ;;gen.c:6570: size=0, offset=0, AOP_TYPE(res)=8
                                           ;	.line	849; "MC32P7351.c"	BUFF_SMG_DAT=DL%10;
                                           	CLRR	(_B_SMG_C + 0)
                                           ;;109	MOVAR	r0x1049
                                           ;	.line	850; "MC32P7351.c"	GET_SMG_VALUE(BUFF_SMG_DAT);
                                           	CLRR	r0x104B
                                           	MOVAI	0x0a
                                           	MOVRA	STK02
                                           	MOVAI	0x00
                                           	MOVRA	STK01
                                           ;;108	MOVAR	r0x104A
                                           	MOVAR	r0x1049
                                           	MOVRA	r0x104A
                                           	MOVRA	STK00
                                           	MOVAI	0x00
                                           	CALL	__modsint
                                           	MOVRA	r0x104B
                                           	MOVAR	STK00
                                           	MOVRA	_BUFF_SMG_DAT
                                           	MOVRA	r0x104A
                                           ;;105	MOVAR	r0x104A
                                           ;	.line	851; "MC32P7351.c"	B_SMG_B.byte=G_VAL;
                                           	MOVAR	_BUFF_SMG_DAT
                                           	CALL	_GET_SMG_VALUE
                                           ;;gen.c:6570: size=0, offset=0, AOP_TYPE(res)=8
                                           ;	.line	852; "MC32P7351.c"	}
                                           	MOVAR	_G_VAL
                                           	MOVRA	(_B_SMG_B + 0)
                                           	GOTO	_00592_DS_
                                           ;;gen.c:6570: size=0, offset=0, AOP_TYPE(res)=8
                                           _00587_DS_
                                           ;	.line	856; "MC32P7351.c"	BUFF_SMG_DAT=DL%10;
                                           	CLRR	(_B_SMG_C + 0)
                                           ;;101	MOVAR	r0x1049
                                           ;	.line	857; "MC32P7351.c"	GET_SMG_VALUE(BUFF_SMG_DAT);
                                           	CLRR	r0x104B
                                           	MOVAI	0x0a
                                           	MOVRA	STK02
                                           	MOVAI	0x00
                                           	MOVRA	STK01
                                           ;;100	MOVAR	r0x104A
                                           	MOVAR	r0x1049
                                           	MOVRA	r0x104A
                                           	MOVRA	STK00
                                           	MOVAI	0x00
                                           	CALL	__modsint
                                           ;;1	MOVRA	r0x104C
                                           	MOVAR	STK00
                                           	MOVRA	_BUFF_SMG_DAT
                                           	MOVRA	r0x1049
                                           ;;104	MOVAR	r0x1049
                                           ;	.line	858; "MC32P7351.c"	B_SMG_B.byte=G_VAL;
                                           	MOVAR	_BUFF_SMG_DAT
                                           	CALL	_GET_SMG_VALUE
                                           ;;gen.c:6570: size=0, offset=0, AOP_TYPE(res)=8
                                           ;	.line	859; "MC32P7351.c"	BUFF_SMG_DAT=DL/10;
                                           	MOVAR	_G_VAL
                                           	MOVRA	(_B_SMG_B + 0)
                                           ;	.line	860; "MC32P7351.c"	GET_SMG_VALUE(BUFF_SMG_DAT);
                                           	MOVAI	0x0a
                                           	MOVRA	STK02
                                           	MOVAI	0x00
                                           	MOVRA	STK01
                                           	MOVAR	r0x104A
                                           	MOVRA	STK00
                                           	MOVAR	r0x104B
                                           	CALL	__divsint
                                           	MOVRA	r0x104A
                                           	MOVAR	STK00
                                           	MOVRA	_BUFF_SMG_DAT
                                           	MOVRA	r0x1049
                                           ;;99	MOVAR	r0x1049
                                           ;	.line	861; "MC32P7351.c"	B_SMG_S.byte=G_VAL;
                                           	MOVAR	_BUFF_SMG_DAT
                                           	CALL	_GET_SMG_VALUE
                                           ;;gen.c:6570: size=0, offset=0, AOP_TYPE(res)=8
                                           ;	.line	862; "MC32P7351.c"	}
                                           	MOVAR	_G_VAL
                                           	MOVRA	(_B_SMG_S + 0)
                                           _00592_DS_
                                           ;	.line	865; "MC32P7351.c"	/********************** SCAN_HOT_BAT_AD *************/
                                           	RETURN	
                                           ; exit point of _SET_DL_DIS
                                           
                                           ;***
                                           ;  pBlock Stats: dbName = C
                                           ;***
                                           ;entry:  _GET_SMG_VALUE	;Function start
                                           ; 2 exit points
                                           ;has an exit
                                           ;1 compiler assigned register :
                                           ;   r0x1048
                                           ;; Starting pCode block
                                           _GET_SMG_VALUE	;Function start
                                           ; 2 exit points
                                           ;	.line	773; "MC32P7351.c"	{
                                           	MOVRA	r0x1048
                                           ;	.line	776; "MC32P7351.c"	{
                                           	MOVAI	0x00
                                           	ORAR	r0x1048
                                           	JBSET	PFLAG,2
                                           	GOTO	_00579_DS_
                                           ;	.line	778; "MC32P7351.c"	}
                                           	MOVAI	0x3f
                                           	MOVRA	_G_VAL
                                           	GOTO	_00581_DS_
                                           _00579_DS_
                                           ;	.line	781; "MC32P7351.c"	{
                                           	MOVAR	r0x1048
                                           	XORAI	0x01
                                           	JBSET	PFLAG,2
                                           	GOTO	_00576_DS_
                                           ;	.line	783; "MC32P7351.c"	}
                                           	MOVAI	0x06
                                           	MOVRA	_G_VAL
                                           	GOTO	_00581_DS_
                                           _00576_DS_
                                           ;	.line	786; "MC32P7351.c"	{
                                           	MOVAR	r0x1048
                                           	XORAI	0x02
                                           	JBSET	PFLAG,2
                                           	GOTO	_00573_DS_
                                           ;	.line	788; "MC32P7351.c"	}
                                           	MOVAI	0x5b
                                           	MOVRA	_G_VAL
                                           	GOTO	_00581_DS_
                                           _00573_DS_
                                           ;	.line	791; "MC32P7351.c"	{
                                           	MOVAR	r0x1048
                                           	XORAI	0x03
                                           	JBSET	PFLAG,2
                                           	GOTO	_00570_DS_
                                           ;	.line	793; "MC32P7351.c"	}
                                           	MOVAI	0x4f
                                           	MOVRA	_G_VAL
                                           	GOTO	_00581_DS_
                                           _00570_DS_
                                           ;	.line	796; "MC32P7351.c"	{
                                           	MOVAR	r0x1048
                                           	XORAI	0x04
                                           	JBSET	PFLAG,2
                                           	GOTO	_00567_DS_
                                           ;	.line	798; "MC32P7351.c"	}
                                           	MOVAI	0x66
                                           	MOVRA	_G_VAL
                                           	GOTO	_00581_DS_
                                           _00567_DS_
                                           ;	.line	801; "MC32P7351.c"	{
                                           	MOVAR	r0x1048
                                           	XORAI	0x05
                                           	JBSET	PFLAG,2
                                           	GOTO	_00564_DS_
                                           ;	.line	803; "MC32P7351.c"	}
                                           	MOVAI	0x6d
                                           	MOVRA	_G_VAL
                                           	GOTO	_00581_DS_
                                           _00564_DS_
                                           ;	.line	806; "MC32P7351.c"	{
                                           	MOVAR	r0x1048
                                           	XORAI	0x06
                                           	JBSET	PFLAG,2
                                           	GOTO	_00561_DS_
                                           ;	.line	808; "MC32P7351.c"	}
                                           	MOVAI	0x7d
                                           	MOVRA	_G_VAL
                                           	GOTO	_00581_DS_
                                           _00561_DS_
                                           ;	.line	811; "MC32P7351.c"	{
                                           	MOVAR	r0x1048
                                           	XORAI	0x07
                                           	JBSET	PFLAG,2
                                           	GOTO	_00558_DS_
                                           ;	.line	813; "MC32P7351.c"	}
                                           	MOVAI	0x07
                                           	MOVRA	_G_VAL
                                           	GOTO	_00581_DS_
                                           _00558_DS_
                                           ;	.line	816; "MC32P7351.c"	{
                                           	MOVAR	r0x1048
                                           	XORAI	0x08
                                           	JBSET	PFLAG,2
                                           	GOTO	_00555_DS_
                                           ;	.line	818; "MC32P7351.c"	}
                                           	MOVAI	0x7f
                                           	MOVRA	_G_VAL
                                           	GOTO	_00581_DS_
                                           _00555_DS_
                                           ;	.line	821; "MC32P7351.c"	{
                                           	MOVAR	r0x1048
                                           	XORAI	0x09
                                           	JBSET	PFLAG,2
                                           	GOTO	_00552_DS_
                                           ;	.line	823; "MC32P7351.c"	}
                                           	MOVAI	0x6f
                                           	MOVRA	_G_VAL
                                           	GOTO	_00581_DS_
                                           _00552_DS_
                                           ;	.line	826; "MC32P7351.c"	{
                                           	MOVAR	r0x1048
                                           	XORAI	0x0a
                                           	JBSET	PFLAG,2
                                           	GOTO	_00581_DS_
                                           ;	.line	828; "MC32P7351.c"	}
                                           	MOVAI	0x71
                                           	MOVRA	_G_VAL
                                           _00581_DS_
                                           ;	.line	832; "MC32P7351.c"	
                                           	RETURN	
                                           ; exit point of _GET_SMG_VALUE
                                           
                                           ;***
                                           ;  pBlock Stats: dbName = C
                                           ;***
                                           ;entry:  _SCAN_SMG_DIS	;Function start
                                           ; 2 exit points
                                           ;has an exit
                                           ;functions called:
                                           ;   _SET_DL_DIS
                                           ;   _SET_DL_DIS
                                           ;   _SET_DL_DIS
                                           ;   _SET_DL_DIS
                                           ;1 compiler assigned register :
                                           ;   r0x104D
                                           ;; Starting pCode block
                                           _SCAN_SMG_DIS	;Function start
                                           ; 2 exit points
                                           ;	.line	557; "MC32P7351.c"	if(!UP_POWER_F)
                                           	JBCLR	_KEY_FLAG,5
                                           	GOTO	_00405_DS_
                                           ;;gen.c:6570: size=0, offset=0, AOP_TYPE(res)=8
                                           ;	.line	559; "MC32P7351.c"	B_SMG_S.byte=0XFF;
                                           	MOVAI	0xff
                                           	MOVRA	(_B_SMG_S + 0)
                                           ;;gen.c:6570: size=0, offset=0, AOP_TYPE(res)=8
                                           ;	.line	560; "MC32P7351.c"	B_SMG_B.byte=0XFF;
                                           	MOVAI	0xff
                                           	MOVRA	(_B_SMG_B + 0)
                                           ;;gen.c:6570: size=0, offset=0, AOP_TYPE(res)=8
                                           ;	.line	561; "MC32P7351.c"	B_SMG_C.byte=0XFF;
                                           	MOVAI	0xff
                                           	MOVRA	(_B_SMG_C + 0)
                                           ;	.line	562; "MC32P7351.c"	CHARGE_CNT++;
                                           	INCR	_CHARGE_CNT
                                           	JBCLR	PFLAG,2
                                           	INCR	(_CHARGE_CNT + 1)
                                           ;;swapping arguments (AOP_TYPEs 1/3)
                                           ;;unsigned compare: left >= lit(0x5DC=1500), size=2
                                           ;	.line	563; "MC32P7351.c"	if(CHARGE_CNT>1499)
                                           	MOVAI	0x05
                                           	RSUBAR	(_CHARGE_CNT + 1)
                                           	JBSET	PFLAG,2
                                           	GOTO	_00533_DS_
                                           	MOVAI	0xdc
                                           	RSUBAR	_CHARGE_CNT
                                           _00533_DS_
                                           	JBSET	PFLAG,0
                                           	GOTO	_00407_DS_
                                           ;;genSkipc:3291: created from rifx:013B5EFC
                                           ;	.line	565; "MC32P7351.c"	CHARGE_CNT=0;
                                           	CLRR	_CHARGE_CNT
                                           	CLRR	(_CHARGE_CNT + 1)
                                           ;	.line	566; "MC32P7351.c"	UP_POWER_F=1;
                                           	BSET	_KEY_FLAG,5
                                           	GOTO	_00407_DS_
                                           _00405_DS_
                                           ;	.line	570; "MC32P7351.c"	else if((WORK_ON||CHARGE_EN)&&(B_UP_POWER_CK))	
                                           	JBCLR	_KEY_FLAG,2
                                           	GOTO	_00403_DS_
                                           	JBSET	_flag1,2
                                           	GOTO	_00400_DS_
                                           _00403_DS_
                                           	JBSET	_flag1,3
                                           	GOTO	_00400_DS_
                                           ;	.line	572; "MC32P7351.c"	if(B_MOTO_LEVE_ZS)
                                           	JBSET	_flag1,5
                                           	GOTO	_00397_DS_
                                           ;	.line	574; "MC32P7351.c"	if(MOTO_MODE==1)
                                           	MOVAR	_MOTO_MODE
                                           	XORAI	0x01
                                           	JBSET	PFLAG,2
                                           	GOTO	_00346_DS_
                                           ;;gen.c:6570: size=0, offset=0, AOP_TYPE(res)=8
                                           ;	.line	576; "MC32P7351.c"	B_SMG_S.byte=0X00;
                                           	CLRR	(_B_SMG_S + 0)
                                           ;;gen.c:6570: size=0, offset=0, AOP_TYPE(res)=8
                                           ;	.line	577; "MC32P7351.c"	B_SMG_B.byte=0X06;
                                           	MOVAI	0x06
                                           	MOVRA	(_B_SMG_B + 0)
                                           ;;gen.c:6570: size=0, offset=0, AOP_TYPE(res)=8
                                           ;	.line	578; "MC32P7351.c"	B_SMG_C.byte=0X00;
                                           	CLRR	(_B_SMG_C + 0)
                                           ;	.line	579; "MC32P7351.c"	B_K_CHARGE=0;
                                           	BCLR	_B_SMG_C,3
                                           	GOTO	_00347_DS_
                                           _00346_DS_
                                           ;	.line	581; "MC32P7351.c"	else if(MOTO_MODE==2)
                                           	MOVAR	_MOTO_MODE
                                           	XORAI	0x02
                                           	JBSET	PFLAG,2
                                           	GOTO	_00343_DS_
                                           ;;gen.c:6570: size=0, offset=0, AOP_TYPE(res)=8
                                           ;	.line	583; "MC32P7351.c"	B_SMG_S.byte=0X00;
                                           	CLRR	(_B_SMG_S + 0)
                                           ;;gen.c:6570: size=0, offset=0, AOP_TYPE(res)=8
                                           ;	.line	584; "MC32P7351.c"	B_SMG_B.byte=0X5B;
                                           	MOVAI	0x5b
                                           	MOVRA	(_B_SMG_B + 0)
                                           ;;gen.c:6570: size=0, offset=0, AOP_TYPE(res)=8
                                           ;	.line	585; "MC32P7351.c"	B_SMG_C.byte=0X00;
                                           	CLRR	(_B_SMG_C + 0)
                                           ;	.line	586; "MC32P7351.c"	B_K_CHARGE=0;
                                           	BCLR	_B_SMG_C,3
                                           	GOTO	_00347_DS_
                                           _00343_DS_
                                           ;	.line	588; "MC32P7351.c"	else if(MOTO_MODE==3)
                                           	MOVAR	_MOTO_MODE
                                           	XORAI	0x03
                                           	JBSET	PFLAG,2
                                           	GOTO	_00340_DS_
                                           ;;gen.c:6570: size=0, offset=0, AOP_TYPE(res)=8
                                           ;	.line	590; "MC32P7351.c"	B_SMG_S.byte=0X00;
                                           	CLRR	(_B_SMG_S + 0)
                                           ;;gen.c:6570: size=0, offset=0, AOP_TYPE(res)=8
                                           ;	.line	591; "MC32P7351.c"	B_SMG_B.byte=0X4F;
                                           	MOVAI	0x4f
                                           	MOVRA	(_B_SMG_B + 0)
                                           ;;gen.c:6570: size=0, offset=0, AOP_TYPE(res)=8
                                           ;	.line	592; "MC32P7351.c"	B_SMG_C.byte=0X00;
                                           	CLRR	(_B_SMG_C + 0)
                                           ;	.line	593; "MC32P7351.c"	B_K_CHARGE=0;
                                           	BCLR	_B_SMG_C,3
                                           	GOTO	_00347_DS_
                                           _00340_DS_
                                           ;	.line	596; "MC32P7351.c"	else if(MOTO_MODE==4)
                                           	MOVAR	_MOTO_MODE
                                           	XORAI	0x04
                                           	JBSET	PFLAG,2
                                           	GOTO	_00337_DS_
                                           ;;gen.c:6570: size=0, offset=0, AOP_TYPE(res)=8
                                           ;	.line	598; "MC32P7351.c"	B_SMG_S.byte=0X00;
                                           	CLRR	(_B_SMG_S + 0)
                                           ;;gen.c:6570: size=0, offset=0, AOP_TYPE(res)=8
                                           ;	.line	599; "MC32P7351.c"	B_SMG_B.byte=0X66;
                                           	MOVAI	0x66
                                           	MOVRA	(_B_SMG_B + 0)
                                           ;;gen.c:6570: size=0, offset=0, AOP_TYPE(res)=8
                                           ;	.line	600; "MC32P7351.c"	B_SMG_C.byte=0X00;
                                           	CLRR	(_B_SMG_C + 0)
                                           ;	.line	601; "MC32P7351.c"	B_K_CHARGE=0;
                                           	BCLR	_B_SMG_C,3
                                           	GOTO	_00347_DS_
                                           _00337_DS_
                                           ;	.line	604; "MC32P7351.c"	else if(MOTO_MODE==5)
                                           	MOVAR	_MOTO_MODE
                                           	XORAI	0x05
                                           	JBSET	PFLAG,2
                                           	GOTO	_00347_DS_
                                           ;;gen.c:6570: size=0, offset=0, AOP_TYPE(res)=8
                                           ;	.line	606; "MC32P7351.c"	B_SMG_S.byte=0X00;
                                           	CLRR	(_B_SMG_S + 0)
                                           ;;gen.c:6570: size=0, offset=0, AOP_TYPE(res)=8
                                           ;	.line	607; "MC32P7351.c"	B_SMG_B.byte=0X6D;
                                           	MOVAI	0x6d
                                           	MOVRA	(_B_SMG_B + 0)
                                           ;;gen.c:6570: size=0, offset=0, AOP_TYPE(res)=8
                                           ;	.line	608; "MC32P7351.c"	B_SMG_C.byte=0X00;
                                           	CLRR	(_B_SMG_C + 0)
                                           ;	.line	609; "MC32P7351.c"	B_K_CHARGE=0;
                                           	BCLR	_B_SMG_C,3
                                           _00347_DS_
                                           ;	.line	612; "MC32P7351.c"	MOTO_DIS_CNT++;
                                           	INCR	_MOTO_DIS_CNT
                                           	JBCLR	PFLAG,2
                                           	INCR	(_MOTO_DIS_CNT + 1)
                                           ;;swapping arguments (AOP_TYPEs 1/3)
                                           ;;unsigned compare: left >= lit(0x5DC=1500), size=2
                                           ;	.line	613; "MC32P7351.c"	if(MOTO_DIS_CNT>1499)
                                           	MOVAI	0x05
                                           	RSUBAR	(_MOTO_DIS_CNT + 1)
                                           	JBSET	PFLAG,2
                                           	GOTO	_00534_DS_
                                           	MOVAI	0xdc
                                           	RSUBAR	_MOTO_DIS_CNT
                                           _00534_DS_
                                           	JBSET	PFLAG,0
                                           	GOTO	_00407_DS_
                                           ;;genSkipc:3291: created from rifx:013B5EFC
                                           ;	.line	615; "MC32P7351.c"	MOTO_DIS_CNT=0;
                                           	CLRR	_MOTO_DIS_CNT
                                           	CLRR	(_MOTO_DIS_CNT + 1)
                                           ;	.line	616; "MC32P7351.c"	B_MOTO_LEVE_ZS=0;
                                           	BCLR	_flag1,5
                                           ;	.line	618; "MC32P7351.c"	DL_DIS_CNT=0;
                                           	CLRR	_DL_DIS_CNT
                                           ;	.line	619; "MC32P7351.c"	PL_DIS_CNT1=0;
                                           	CLRR	_PL_DIS_CNT1
                                           	CLRR	(_PL_DIS_CNT1 + 1)
                                           	GOTO	_00407_DS_
                                           _00397_DS_
                                           ;	.line	625; "MC32P7351.c"	if(CHARGE_EN)
                                           	JBSET	_flag1,2
                                           	GOTO	_00369_DS_
                                           ;	.line	627; "MC32P7351.c"	DL_DIS_CNT2=0;
                                           	CLRR	_DL_DIS_CNT2
                                           	CLRR	(_DL_DIS_CNT2 + 1)
                                           ;	.line	628; "MC32P7351.c"	DL_DIS_CNT1++;
                                           	INCR	_DL_DIS_CNT1
                                           	JBCLR	PFLAG,2
                                           	INCR	(_DL_DIS_CNT1 + 1)
                                           ;;swapping arguments (AOP_TYPEs 1/3)
                                           ;;unsigned compare: left >= lit(0x61A8=25000), size=2
                                           ;	.line	629; "MC32P7351.c"	if(DL_DIS_CNT1>24999) //29999
                                           	MOVAI	0x61
                                           	RSUBAR	(_DL_DIS_CNT1 + 1)
                                           	JBSET	PFLAG,2
                                           	GOTO	_00535_DS_
                                           	MOVAI	0xa8
                                           	RSUBAR	_DL_DIS_CNT1
                                           _00535_DS_
                                           	JBSET	PFLAG,0
                                           	GOTO	_00370_DS_
                                           ;;genSkipc:3291: created from rifx:013B5EFC
                                           ;	.line	631; "MC32P7351.c"	DL_DIS_CNT1=0;
                                           	CLRR	_DL_DIS_CNT1
                                           	CLRR	(_DL_DIS_CNT1 + 1)
                                           ;	.line	632; "MC32P7351.c"	if(BUFF_BAT_VALUE>SET_BAT_VALUE)
                                           	MOVAR	(_BUFF_BAT_VALUE + 1)
                                           	RSUBAR	(_SET_BAT_VALUE + 1)
                                           	JBSET	PFLAG,2
                                           	GOTO	_00536_DS_
                                           	MOVAR	_BUFF_BAT_VALUE
                                           	RSUBAR	_SET_BAT_VALUE
                                           _00536_DS_
                                           	JBCLR	PFLAG,0
                                           	GOTO	_00370_DS_
                                           ;;genSkipc:3291: created from rifx:013B5EFC
                                           ;;unsigned compare: left < lit(0x64=100), size=2
                                           ;	.line	634; "MC32P7351.c"	if(SET_BAT_VALUE<100)
                                           	MOVAI	0x00
                                           	RSUBAR	(_SET_BAT_VALUE + 1)
                                           	JBSET	PFLAG,2
                                           	GOTO	_00537_DS_
                                           	MOVAI	0x64
                                           	RSUBAR	_SET_BAT_VALUE
                                           _00537_DS_
                                           	JBCLR	PFLAG,0
                                           	GOTO	_00370_DS_
                                           ;;genSkipc:3291: created from rifx:013B5EFC
                                           ;	.line	636; "MC32P7351.c"	SET_BAT_VALUE++;
                                           	INCR	_SET_BAT_VALUE
                                           	JBCLR	PFLAG,2
                                           	INCR	(_SET_BAT_VALUE + 1)
                                           	GOTO	_00370_DS_
                                           _00369_DS_
                                           ;	.line	642; "MC32P7351.c"	else if(WORK_ON)	
                                           	JBSET	_KEY_FLAG,2
                                           	GOTO	_00370_DS_
                                           ;	.line	644; "MC32P7351.c"	DL_DIS_CNT1=0;
                                           	CLRR	_DL_DIS_CNT1
                                           	CLRR	(_DL_DIS_CNT1 + 1)
                                           ;	.line	645; "MC32P7351.c"	DL_DIS_CNT2++;
                                           	INCR	_DL_DIS_CNT2
                                           	JBCLR	PFLAG,2
                                           	INCR	(_DL_DIS_CNT2 + 1)
                                           ;;swapping arguments (AOP_TYPEs 1/3)
                                           ;;unsigned compare: left >= lit(0x61A8=25000), size=2
                                           ;	.line	646; "MC32P7351.c"	if(DL_DIS_CNT2>24999)  //29999
                                           	MOVAI	0x61
                                           	RSUBAR	(_DL_DIS_CNT2 + 1)
                                           	JBSET	PFLAG,2
                                           	GOTO	_00538_DS_
                                           	MOVAI	0xa8
                                           	RSUBAR	_DL_DIS_CNT2
                                           _00538_DS_
                                           	JBSET	PFLAG,0
                                           	GOTO	_00363_DS_
                                           ;;genSkipc:3291: created from rifx:013B5EFC
                                           ;	.line	648; "MC32P7351.c"	DL_DIS_CNT2=0;
                                           	CLRR	_DL_DIS_CNT2
                                           	CLRR	(_DL_DIS_CNT2 + 1)
                                           ;	.line	650; "MC32P7351.c"	if(SET_BAT_VALUE==0)
                                           	MOVAR	_SET_BAT_VALUE
                                           	ORAR	(_SET_BAT_VALUE + 1)
                                           	JBSET	PFLAG,2
                                           	GOTO	_00357_DS_
                                           ;	.line	652; "MC32P7351.c"	B_LOW_POWER_F=1;
                                           	BSET	_flag2,0
                                           ;	.line	653; "MC32P7351.c"	B_LOW_P_DIS_F=0;
                                           	BCLR	_flag2,1
                                           ;	.line	654; "MC32P7351.c"	WORK_ON=0;
                                           	BCLR	_KEY_FLAG,2
                                           ;	.line	655; "MC32P7351.c"	MOTO_DIS_CNT=0;
                                           	CLRR	_MOTO_DIS_CNT
                                           	CLRR	(_MOTO_DIS_CNT + 1)
                                           ;	.line	656; "MC32P7351.c"	B_MOTO_LEVE_ZS=0;
                                           	BCLR	_flag1,5
                                           ;	.line	657; "MC32P7351.c"	MOTO_MODE=0;
                                           	CLRR	_MOTO_MODE
                                           _00357_DS_
                                           ;	.line	661; "MC32P7351.c"	if(BUFF_BAT_VALUE<SET_BAT_VALUE)
                                           	MOVAR	(_SET_BAT_VALUE + 1)
                                           	RSUBAR	(_BUFF_BAT_VALUE + 1)
                                           	JBSET	PFLAG,2
                                           	GOTO	_00539_DS_
                                           	MOVAR	_SET_BAT_VALUE
                                           	RSUBAR	_BUFF_BAT_VALUE
                                           _00539_DS_
                                           	JBCLR	PFLAG,0
                                           	GOTO	_00363_DS_
                                           ;;genSkipc:3291: created from rifx:013B5EFC
                                           ;	.line	663; "MC32P7351.c"	if(SET_BAT_VALUE>0)
                                           	MOVAR	_SET_BAT_VALUE
                                           	ORAR	(_SET_BAT_VALUE + 1)
                                           	JBCLR	PFLAG,2
                                           	GOTO	_00363_DS_
                                           ;	.line	665; "MC32P7351.c"	SET_BAT_VALUE--;
                                           	MOVAI	0xff
                                           	ADDRA	_SET_BAT_VALUE
                                           	JBSET	PFLAG,0
                                           	DECR	(_SET_BAT_VALUE + 1)
                                           ;;unsigned compare: left < lit(0x3=3), size=2
                                           _00363_DS_
                                           ;	.line	671; "MC32P7351.c"	if(SET_BAT_VALUE<3)
                                           	MOVAI	0x00
                                           	RSUBAR	(_SET_BAT_VALUE + 1)
                                           	JBSET	PFLAG,2
                                           	GOTO	_00540_DS_
                                           	MOVAI	0x03
                                           	RSUBAR	_SET_BAT_VALUE
                                           _00540_DS_
                                           	JBCLR	PFLAG,0
                                           	GOTO	_00370_DS_
                                           ;;genSkipc:3291: created from rifx:013B5EFC
                                           ;	.line	673; "MC32P7351.c"	B_LOW_P_DIS_F=1;
                                           	BSET	_flag2,1
                                           _00370_DS_
                                           ;	.line	677; "MC32P7351.c"	if(CHARGE_EN)
                                           	JBSET	_flag1,2
                                           	GOTO	_00380_DS_
                                           ;	.line	679; "MC32P7351.c"	CHARG_DIS_CNT++;
                                           	INCR	_CHARG_DIS_CNT
                                           	JBCLR	PFLAG,2
                                           	INCR	(_CHARG_DIS_CNT + 1)
                                           ;;swapping arguments (AOP_TYPEs 1/3)
                                           ;;unsigned compare: left >= lit(0x3E8=1000), size=2
                                           ;	.line	680; "MC32P7351.c"	if(CHARG_DIS_CNT>999)
                                           	MOVAI	0x03
                                           	RSUBAR	(_CHARG_DIS_CNT + 1)
                                           	JBSET	PFLAG,2
                                           	GOTO	_00541_DS_
                                           	MOVAI	0xe8
                                           	RSUBAR	_CHARG_DIS_CNT
                                           _00541_DS_
                                           	JBSET	PFLAG,0
                                           	GOTO	_00372_DS_
                                           ;;genSkipc:3291: created from rifx:013B5EFC
                                           ;	.line	682; "MC32P7351.c"	CHARG_DIS_CNT=0;
                                           	CLRR	_CHARG_DIS_CNT
                                           	CLRR	(_CHARG_DIS_CNT + 1)
                                           ;;unsigned compare: left < lit(0x1F3=499), size=2
                                           _00372_DS_
                                           ;	.line	684; "MC32P7351.c"	if(CHARG_DIS_CNT<499)
                                           	MOVAI	0x01
                                           	RSUBAR	(_CHARG_DIS_CNT + 1)
                                           	JBSET	PFLAG,2
                                           	GOTO	_00542_DS_
                                           	MOVAI	0xf3
                                           	RSUBAR	_CHARG_DIS_CNT
                                           _00542_DS_
                                           	JBCLR	PFLAG,0
                                           	GOTO	_00377_DS_
                                           ;;genSkipc:3291: created from rifx:013B5EFC
                                           ;	.line	686; "MC32P7351.c"	B_K_CHARGE=1;
                                           	BSET	_B_SMG_C,3
                                           	GOTO	_00381_DS_
                                           _00377_DS_
                                           ;	.line	691; "MC32P7351.c"	if(!CHARGE_FULL)
                                           	JBCLR	_flag1,6
                                           	GOTO	_00374_DS_
                                           ;	.line	693; "MC32P7351.c"	B_K_CHARGE=0;
                                           	BCLR	_B_SMG_C,3
                                           	GOTO	_00381_DS_
                                           _00374_DS_
                                           ;	.line	697; "MC32P7351.c"	B_K_CHARGE=1;
                                           	BSET	_B_SMG_C,3
                                           	GOTO	_00381_DS_
                                           _00380_DS_
                                           ;	.line	704; "MC32P7351.c"	B_K_CHARGE=0;
                                           	BCLR	_B_SMG_C,3
                                           ;	.line	705; "MC32P7351.c"	CHARG_DIS_CNT=0;
                                           	CLRR	_CHARG_DIS_CNT
                                           	CLRR	(_CHARG_DIS_CNT + 1)
                                           _00381_DS_
                                           ;	.line	708; "MC32P7351.c"	if(B_LOW_POWER_F)
                                           	JBSET	_flag2,0
                                           	GOTO	_00383_DS_
                                           ;	.line	710; "MC32P7351.c"	WORK_ON=0;
                                           	BCLR	_KEY_FLAG,2
                                           ;	.line	711; "MC32P7351.c"	MOTO_DIS_CNT=0;
                                           	CLRR	_MOTO_DIS_CNT
                                           	CLRR	(_MOTO_DIS_CNT + 1)
                                           ;	.line	712; "MC32P7351.c"	B_MOTO_LEVE_ZS=0;
                                           	BCLR	_flag1,5
                                           ;	.line	713; "MC32P7351.c"	MOTO_MODE=0;
                                           	CLRR	_MOTO_MODE
                                           _00383_DS_
                                           ;	.line	717; "MC32P7351.c"	{
                                           	JBSET	_flag2,1
                                           	GOTO	_00394_DS_
                                           ;	.line	719; "MC32P7351.c"	if(PL_DIS_CNT1>999)
                                           	INCR	_PL_DIS_CNT1
                                           	JBCLR	PFLAG,2
                                           	INCR	(_PL_DIS_CNT1 + 1)
                                           ;;swapping arguments (AOP_TYPEs 1/3)
                                           ;;unsigned compare: left >= lit(0x3E8=1000), size=2
                                           ;	.line	720; "MC32P7351.c"	{
                                           	MOVAI	0x03
                                           	RSUBAR	(_PL_DIS_CNT1 + 1)
                                           	JBSET	PFLAG,2
                                           	GOTO	_00543_DS_
                                           	MOVAI	0xe8
                                           	RSUBAR	_PL_DIS_CNT1
                                           _00543_DS_
                                           	JBSET	PFLAG,0
                                           	GOTO	_00385_DS_
                                           ;;genSkipc:3291: created from rifx:013B5EFC
                                           ;	.line	722; "MC32P7351.c"	}
                                           	CLRR	_PL_DIS_CNT1
                                           	CLRR	(_PL_DIS_CNT1 + 1)
                                           ;;unsigned compare: left < lit(0x1F3=499), size=2
                                           _00385_DS_
                                           ;	.line	725; "MC32P7351.c"	{
                                           	MOVAI	0x01
                                           	RSUBAR	(_PL_DIS_CNT1 + 1)
                                           	JBSET	PFLAG,2
                                           	GOTO	_00544_DS_
                                           	MOVAI	0xf3
                                           	RSUBAR	_PL_DIS_CNT1
                                           _00544_DS_
                                           	JBCLR	PFLAG,0
                                           	GOTO	_00389_DS_
                                           ;;genSkipc:3291: created from rifx:013B5EFC
                                           ;	.line	727; "MC32P7351.c"	B_K_CHARGE=0;
                                           	CLRR	_DL_DIS_CNT
                                           ;	.line	728; "MC32P7351.c"	B_SMG_S.byte=0X00;
                                           	BCLR	_B_SMG_C,3
                                           ;;gen.c:6570: size=0, offset=0, AOP_TYPE(res)=8
                                           ;	.line	729; "MC32P7351.c"	B_SMG_B.byte=0X00;
                                           	CLRR	(_B_SMG_S + 0)
                                           ;;gen.c:6570: size=0, offset=0, AOP_TYPE(res)=8
                                           ;	.line	730; "MC32P7351.c"	B_SMG_C.byte=0X00;
                                           	CLRR	(_B_SMG_B + 0)
                                           ;;gen.c:6570: size=0, offset=0, AOP_TYPE(res)=8
                                           ;	.line	731; "MC32P7351.c"	}
                                           	CLRR	(_B_SMG_C + 0)
                                           	GOTO	_00407_DS_
                                           _00389_DS_
                                           ;	.line	736; "MC32P7351.c"	DL_DIS_CNT++;
                                           	BSET	_B_SMG_C,3
                                           ;	.line	737; "MC32P7351.c"	if(DL_DIS_CNT>49)
                                           	INCR	_DL_DIS_CNT
                                           ;;swapping arguments (AOP_TYPEs 1/3)
                                           ;;unsigned compare: left >= lit(0x32=50), size=1
                                           ;	.line	738; "MC32P7351.c"	{
                                           	MOVAI	0x32
                                           	RSUBAR	_DL_DIS_CNT
                                           	JBSET	PFLAG,0
                                           	GOTO	_00407_DS_
                                           ;;genSkipc:3291: created from rifx:013B5EFC
                                           ;	.line	740; "MC32P7351.c"	SET_DL_DIS(SET_BAT_VALUE);
                                           	CLRR	_DL_DIS_CNT
                                           ;	.line	741; "MC32P7351.c"	}
                                           	MOVAR	_SET_BAT_VALUE
                                           	MOVRA	r0x104D
                                           	MOVAR	r0x104D
                                           	CALL	_SET_DL_DIS
                                           	GOTO	_00407_DS_
                                           _00394_DS_
                                           ;	.line	748; "MC32P7351.c"	B_K_DL=1;
                                           	CLRR	_PL_DIS_CNT1
                                           	CLRR	(_PL_DIS_CNT1 + 1)
                                           ;	.line	749; "MC32P7351.c"	DL_DIS_CNT++;
                                           	BSET	_B_SMG_C,4
                                           ;	.line	750; "MC32P7351.c"	if(DL_DIS_CNT>49)
                                           	INCR	_DL_DIS_CNT
                                           ;;swapping arguments (AOP_TYPEs 1/3)
                                           ;;unsigned compare: left >= lit(0x32=50), size=1
                                           ;	.line	751; "MC32P7351.c"	{
                                           	MOVAI	0x32
                                           	RSUBAR	_DL_DIS_CNT
                                           	JBSET	PFLAG,0
                                           	GOTO	_00407_DS_
                                           ;;genSkipc:3291: created from rifx:013B5EFC
                                           ;	.line	753; "MC32P7351.c"	SET_DL_DIS(SET_BAT_VALUE);
                                           	CLRR	_DL_DIS_CNT
                                           ;	.line	754; "MC32P7351.c"	}
                                           	MOVAR	_SET_BAT_VALUE
                                           	MOVRA	r0x104D
                                           	MOVAR	r0x104D
                                           	CALL	_SET_DL_DIS
                                           	GOTO	_00407_DS_
                                           _00400_DS_
                                           ;	.line	761; "MC32P7351.c"	DL_DIS_CNT2=0;
                                           	CLRR	_DL_DIS_CNT1
                                           	CLRR	(_DL_DIS_CNT1 + 1)
                                           ;	.line	762; "MC32P7351.c"	DL_DIS_CNT=0;
                                           	CLRR	_DL_DIS_CNT2
                                           	CLRR	(_DL_DIS_CNT2 + 1)
                                           ;	.line	763; "MC32P7351.c"	PL_DIS_CNT1=0;
                                           	CLRR	_DL_DIS_CNT
                                           ;	.line	764; "MC32P7351.c"	B_SMG_S.byte=0;
                                           	CLRR	_PL_DIS_CNT1
                                           	CLRR	(_PL_DIS_CNT1 + 1)
                                           ;;gen.c:6570: size=0, offset=0, AOP_TYPE(res)=8
                                           ;	.line	765; "MC32P7351.c"	B_SMG_B.byte=0;
                                           	CLRR	(_B_SMG_S + 0)
                                           ;;gen.c:6570: size=0, offset=0, AOP_TYPE(res)=8
                                           ;	.line	766; "MC32P7351.c"	B_SMG_C.byte=0;
                                           	CLRR	(_B_SMG_B + 0)
                                           ;;gen.c:6570: size=0, offset=0, AOP_TYPE(res)=8
                                           ;	.line	767; "MC32P7351.c"	}
                                           	CLRR	(_B_SMG_C + 0)
                                           _00407_DS_
                                           ;	.line	769; "MC32P7351.c"	
                                           	RETURN	
                                           ; exit point of _SCAN_SMG_DIS
                                           
                                           ;***
                                           ;  pBlock Stats: dbName = C
                                           ;***
                                           ;entry:  _SCAN_SMG_CTR	;Function start
                                           ; 2 exit points
                                           ;has an exit
                                           ;; Starting pCode block
                                           _SCAN_SMG_CTR	;Function start
                                           ; 2 exit points
                                           ;	.line	349; "MC32P7351.c"	P00OE=0;
                                           	BCLR	_OEP0bits,0
                                           ;	.line	350; "MC32P7351.c"	P01OE=0;
                                           	BCLR	_OEP0bits,1
                                           ;	.line	351; "MC32P7351.c"	P02OE=0;
                                           	BCLR	_OEP0bits,2
                                           ;	.line	352; "MC32P7351.c"	P03OE=0;
                                           	BCLR	_OEP0bits,3
                                           ;	.line	353; "MC32P7351.c"	P15OE=0;
                                           	BCLR	_OEP1bits,5
                                           ;	.line	355; "MC32P7351.c"	B_HAVE_LED=0;
                                           	BCLR	_flag2,3
                                           ;	.line	357; "MC32P7351.c"	LED_MODE++;
                                           	INCR	_LED_MODE
                                           ;;swapping arguments (AOP_TYPEs 1/3)
                                           ;;unsigned compare: left >= lit(0x5=5), size=1
                                           ;	.line	358; "MC32P7351.c"	if(LED_MODE>4)
                                           	MOVAI	0x05
                                           	RSUBAR	_LED_MODE
                                           	JBSET	PFLAG,0
                                           	GOTO	_00266_DS_
                                           ;;genSkipc:3291: created from rifx:013B5EFC
                                           ;	.line	360; "MC32P7351.c"	LED_MODE=0;
                                           	CLRR	_LED_MODE
                                           _00266_DS_
                                           ;	.line	363; "MC32P7351.c"	if(LED_MODE==0)
                                           	MOVAI	0x00
                                           	ORAR	_LED_MODE
                                           	JBSET	PFLAG,2
                                           	GOTO	_00325_DS_
                                           ;	.line	365; "MC32P7351.c"	if(B_G_A)
                                           	JBSET	_B_SMG_B,0
                                           	GOTO	_00268_DS_
                                           ;	.line	367; "MC32P7351.c"	P03OE=1;
                                           	BSET	_OEP0bits,3
                                           ;	.line	368; "MC32P7351.c"	LED_SMG2=0;
                                           	BCLR	_IOP0bits,3
                                           ;	.line	369; "MC32P7351.c"	B_HAVE_LED=1;
                                           	BSET	_flag2,3
                                           _00268_DS_
                                           ;	.line	371; "MC32P7351.c"	if(B_G_C)
                                           	JBSET	_B_SMG_B,2
                                           	GOTO	_00270_DS_
                                           ;	.line	373; "MC32P7351.c"	P02OE=1;
                                           	BSET	_OEP0bits,2
                                           ;	.line	374; "MC32P7351.c"	LED_SMG3=0;
                                           	BCLR	_IOP0bits,2
                                           ;	.line	375; "MC32P7351.c"	B_HAVE_LED=1;
                                           	BSET	_flag2,3
                                           _00270_DS_
                                           ;	.line	377; "MC32P7351.c"	if(B_G_E)
                                           	JBSET	_B_SMG_B,4
                                           	GOTO	_00272_DS_
                                           ;	.line	379; "MC32P7351.c"	P01OE=1;
                                           	BSET	_OEP0bits,1
                                           ;	.line	380; "MC32P7351.c"	LED_SMG4=0;
                                           	BCLR	_IOP0bits,1
                                           ;	.line	381; "MC32P7351.c"	B_HAVE_LED=1;
                                           	BSET	_flag2,3
                                           _00272_DS_
                                           ;	.line	385; "MC32P7351.c"	if(B_HAVE_LED)
                                           	JBSET	_flag2,3
                                           	GOTO	_00327_DS_
                                           ;	.line	387; "MC32P7351.c"	P15OE=1;
                                           	BSET	_OEP1bits,5
                                           ;	.line	388; "MC32P7351.c"	LED_SMG1=1;
                                           	BSET	_IOP1bits,5
                                           	GOTO	_00327_DS_
                                           _00325_DS_
                                           ;	.line	392; "MC32P7351.c"	else if(LED_MODE==1)
                                           	MOVAR	_LED_MODE
                                           	XORAI	0x01
                                           	JBSET	PFLAG,2
                                           	GOTO	_00322_DS_
                                           ;	.line	394; "MC32P7351.c"	if(B_C_1)
                                           	JBSET	_B_SMG_C,1
                                           	GOTO	_00276_DS_
                                           ;	.line	396; "MC32P7351.c"	P01OE=1;
                                           	BSET	_OEP0bits,1
                                           ;	.line	397; "MC32P7351.c"	LED_SMG4=0;
                                           	BCLR	_IOP0bits,1
                                           ;	.line	398; "MC32P7351.c"	B_HAVE_LED=1;
                                           	BSET	_flag2,3
                                           _00276_DS_
                                           ;	.line	402; "MC32P7351.c"	if(B_S_A)
                                           	JBSET	_B_SMG_S,0
                                           	GOTO	_00278_DS_
                                           ;	.line	404; "MC32P7351.c"	P02OE=1;
                                           	BSET	_OEP0bits,2
                                           ;	.line	405; "MC32P7351.c"	LED_SMG3=0;
                                           	BCLR	_IOP0bits,2
                                           ;	.line	406; "MC32P7351.c"	B_HAVE_LED=1;
                                           	BSET	_flag2,3
                                           _00278_DS_
                                           ;	.line	410; "MC32P7351.c"	if(B_G_B)
                                           	JBSET	_B_SMG_B,1
                                           	GOTO	_00280_DS_
                                           ;	.line	412; "MC32P7351.c"	P15OE=1;
                                           	BSET	_OEP1bits,5
                                           ;	.line	413; "MC32P7351.c"	LED_SMG1=0;
                                           	BCLR	_IOP1bits,5
                                           ;	.line	414; "MC32P7351.c"	B_HAVE_LED=1;
                                           	BSET	_flag2,3
                                           _00280_DS_
                                           ;	.line	418; "MC32P7351.c"	if(B_K_DL)
                                           	JBSET	_B_SMG_C,4
                                           	GOTO	_00282_DS_
                                           ;	.line	420; "MC32P7351.c"	P00OE=1;
                                           	BSET	_OEP0bits,0
                                           ;	.line	421; "MC32P7351.c"	LED_SMG5=0;
                                           	BCLR	_IOP0bits,0
                                           ;	.line	422; "MC32P7351.c"	B_HAVE_LED=1;
                                           	BSET	_flag2,3
                                           _00282_DS_
                                           ;	.line	425; "MC32P7351.c"	if(B_HAVE_LED)
                                           	JBSET	_flag2,3
                                           	GOTO	_00327_DS_
                                           ;	.line	427; "MC32P7351.c"	P03OE=1;
                                           	BSET	_OEP0bits,3
                                           ;	.line	428; "MC32P7351.c"	LED_SMG2=1;
                                           	BSET	_IOP0bits,3
                                           	GOTO	_00327_DS_
                                           _00322_DS_
                                           ;	.line	432; "MC32P7351.c"	else if(LED_MODE==2)
                                           	MOVAR	_LED_MODE
                                           	XORAI	0x02
                                           	JBSET	PFLAG,2
                                           	GOTO	_00319_DS_
                                           ;	.line	434; "MC32P7351.c"	if(B_B_1)
                                           	JBSET	_B_SMG_C,0
                                           	GOTO	_00286_DS_
                                           ;	.line	436; "MC32P7351.c"	P01OE=1;
                                           	BSET	_OEP0bits,1
                                           ;	.line	437; "MC32P7351.c"	LED_SMG4=0;
                                           	BCLR	_IOP0bits,1
                                           ;	.line	438; "MC32P7351.c"	B_HAVE_LED=1;
                                           	BSET	_flag2,3
                                           _00286_DS_
                                           ;	.line	442; "MC32P7351.c"	if(B_S_B)
                                           	JBSET	_B_SMG_S,1
                                           	GOTO	_00288_DS_
                                           ;	.line	444; "MC32P7351.c"	P03OE=1;
                                           	BSET	_OEP0bits,3
                                           ;	.line	445; "MC32P7351.c"	LED_SMG2=0;
                                           	BCLR	_IOP0bits,3
                                           ;	.line	446; "MC32P7351.c"	B_HAVE_LED=1;
                                           	BSET	_flag2,3
                                           _00288_DS_
                                           ;	.line	450; "MC32P7351.c"	if(B_G_D)
                                           	JBSET	_B_SMG_B,3
                                           	GOTO	_00290_DS_
                                           ;	.line	452; "MC32P7351.c"	P15OE=1;
                                           	BSET	_OEP1bits,5
                                           ;	.line	453; "MC32P7351.c"	LED_SMG1=0;
                                           	BCLR	_IOP1bits,5
                                           ;	.line	454; "MC32P7351.c"	B_HAVE_LED=1;
                                           	BSET	_flag2,3
                                           _00290_DS_
                                           ;	.line	459; "MC32P7351.c"	if(B_K_CHARGE)
                                           	JBSET	_B_SMG_C,3
                                           	GOTO	_00292_DS_
                                           ;	.line	461; "MC32P7351.c"	P00OE=1;
                                           	BSET	_OEP0bits,0
                                           ;	.line	462; "MC32P7351.c"	LED_SMG5=0;
                                           	BCLR	_IOP0bits,0
                                           ;	.line	463; "MC32P7351.c"	B_HAVE_LED=1;
                                           	BSET	_flag2,3
                                           _00292_DS_
                                           ;	.line	467; "MC32P7351.c"	if(B_HAVE_LED)
                                           	JBSET	_flag2,3
                                           	GOTO	_00327_DS_
                                           ;	.line	469; "MC32P7351.c"	P02OE=1;
                                           	BSET	_OEP0bits,2
                                           ;	.line	470; "MC32P7351.c"	LED_SMG3=1;
                                           	BSET	_IOP0bits,2
                                           	GOTO	_00327_DS_
                                           _00319_DS_
                                           ;	.line	474; "MC32P7351.c"	else if(LED_MODE==3)
                                           	MOVAR	_LED_MODE
                                           	XORAI	0x03
                                           	JBSET	PFLAG,2
                                           	GOTO	_00316_DS_
                                           ;	.line	476; "MC32P7351.c"	if(B_S_C)
                                           	JBSET	_B_SMG_S,2
                                           	GOTO	_00296_DS_
                                           ;	.line	478; "MC32P7351.c"	P02OE=1;
                                           	BSET	_OEP0bits,2
                                           ;	.line	479; "MC32P7351.c"	LED_SMG3=0;
                                           	BCLR	_IOP0bits,2
                                           ;	.line	480; "MC32P7351.c"	B_HAVE_LED=1;
                                           	BSET	_flag2,3
                                           _00296_DS_
                                           ;	.line	484; "MC32P7351.c"	if(B_S_D)
                                           	JBSET	_B_SMG_S,3
                                           	GOTO	_00298_DS_
                                           ;	.line	486; "MC32P7351.c"	P03OE=1;
                                           	BSET	_OEP0bits,3
                                           ;	.line	487; "MC32P7351.c"	LED_SMG2=0;
                                           	BCLR	_IOP0bits,3
                                           ;	.line	488; "MC32P7351.c"	B_HAVE_LED=1;
                                           	BSET	_flag2,3
                                           _00298_DS_
                                           ;	.line	492; "MC32P7351.c"	if(B_G_F)
                                           	JBSET	_B_SMG_B,5
                                           	GOTO	_00300_DS_
                                           ;	.line	494; "MC32P7351.c"	P15OE=1;
                                           	BSET	_OEP1bits,5
                                           ;	.line	495; "MC32P7351.c"	LED_SMG1=0;
                                           	BCLR	_IOP1bits,5
                                           ;	.line	496; "MC32P7351.c"	B_HAVE_LED=1;
                                           	BSET	_flag2,3
                                           _00300_DS_
                                           ;	.line	501; "MC32P7351.c"	if(B_HAVE_LED)
                                           	JBSET	_flag2,3
                                           	GOTO	_00327_DS_
                                           ;	.line	503; "MC32P7351.c"	P01OE=1;
                                           	BSET	_OEP0bits,1
                                           ;	.line	504; "MC32P7351.c"	LED_SMG4=1;
                                           	BSET	_IOP0bits,1
                                           	GOTO	_00327_DS_
                                           _00316_DS_
                                           ;	.line	508; "MC32P7351.c"	else if(LED_MODE==4)
                                           	MOVAR	_LED_MODE
                                           	XORAI	0x04
                                           	JBSET	PFLAG,2
                                           	GOTO	_00327_DS_
                                           ;	.line	510; "MC32P7351.c"	if(B_S_E)
                                           	JBSET	_B_SMG_S,4
                                           	GOTO	_00304_DS_
                                           ;	.line	512; "MC32P7351.c"	P03OE=1;
                                           	BSET	_OEP0bits,3
                                           ;	.line	513; "MC32P7351.c"	LED_SMG2=0;
                                           	BCLR	_IOP0bits,3
                                           ;	.line	514; "MC32P7351.c"	B_HAVE_LED=1;
                                           	BSET	_flag2,3
                                           _00304_DS_
                                           ;	.line	518; "MC32P7351.c"	if(B_S_F)
                                           	JBSET	_B_SMG_S,5
                                           	GOTO	_00306_DS_
                                           ;	.line	520; "MC32P7351.c"	P02OE=1;
                                           	BSET	_OEP0bits,2
                                           ;	.line	521; "MC32P7351.c"	LED_SMG3=0;
                                           	BCLR	_IOP0bits,2
                                           ;	.line	522; "MC32P7351.c"	B_HAVE_LED=1;
                                           	BSET	_flag2,3
                                           _00306_DS_
                                           ;	.line	526; "MC32P7351.c"	if(B_S_G)
                                           	JBSET	_B_SMG_S,6
                                           	GOTO	_00308_DS_
                                           ;	.line	528; "MC32P7351.c"	P01OE=1;
                                           	BSET	_OEP0bits,1
                                           ;	.line	529; "MC32P7351.c"	LED_SMG4=0;
                                           	BCLR	_IOP0bits,1
                                           ;	.line	530; "MC32P7351.c"	B_HAVE_LED=1;
                                           	BSET	_flag2,3
                                           _00308_DS_
                                           ;	.line	534; "MC32P7351.c"	if(B_G_G)
                                           	JBSET	_B_SMG_B,6
                                           	GOTO	_00310_DS_
                                           ;	.line	536; "MC32P7351.c"	P15OE=1;
                                           	BSET	_OEP1bits,5
                                           ;	.line	537; "MC32P7351.c"	LED_SMG1=0;
                                           	BCLR	_IOP1bits,5
                                           ;	.line	538; "MC32P7351.c"	B_HAVE_LED=1;
                                           	BSET	_flag2,3
                                           _00310_DS_
                                           ;	.line	542; "MC32P7351.c"	if(B_HAVE_LED)
                                           	JBSET	_flag2,3
                                           	GOTO	_00327_DS_
                                           ;	.line	544; "MC32P7351.c"	P00OE=1;
                                           	BSET	_OEP0bits,0
                                           ;	.line	545; "MC32P7351.c"	LED_SMG5=1;
                                           	BSET	_IOP0bits,0
                                           _00327_DS_
                                           ;	.line	549; "MC32P7351.c"	}
                                           	RETURN	
                                           ; exit point of _SCAN_SMG_CTR
                                           
                                           ;***
                                           ;  pBlock Stats: dbName = C
                                           ;***
                                           ;entry:  _SCAN_FUNTION_CTR	;Function start
                                           ; 2 exit points
                                           ;has an exit
                                           ;functions called:
                                           ;   _TIMER0_INT_Init
                                           ;   _TIMER0_INT_Init
                                           ;   _TIMER0_INT_Init
                                           ;   _TIMER0_INT_Init
                                           ;; Starting pCode block
                                           _SCAN_FUNTION_CTR	;Function start
                                           ; 2 exit points
                                           ;	.line	292; "MC32P7351.c"	if(WORK_ON)
                                           	JBSET	_KEY_FLAG,2
                                           	GOTO	_00258_DS_
                                           ;	.line	294; "MC32P7351.c"	if(MOTO_MODE==0)
                                           	MOVAI	0x00
                                           	ORAR	_MOTO_MODE
                                           	JBSET	PFLAG,2
                                           	GOTO	_00255_DS_
                                           ;	.line	296; "MC32P7351.c"	TIMER0_INT_Init();
                                           	CALL	_TIMER0_INT_Init
                                           ;	.line	297; "MC32P7351.c"	MOTO=0;
                                           	BCLR	_IOP1bits,7
                                           	GOTO	_00260_DS_
                                           _00255_DS_
                                           ;	.line	301; "MC32P7351.c"	MOTO=1;
                                           	BSET	_IOP1bits,7
                                           ;	.line	302; "MC32P7351.c"	if(!PWM_INONE)
                                           	JBCLR	_flag2,6
                                           	GOTO	_00239_DS_
                                           ;	.line	304; "MC32P7351.c"	PWM_INONE=1;
                                           	BSET	_flag2,6
                                           ;	.line	305; "MC32P7351.c"	T0EN   = 1;
                                           	BSET	_T0CRbits,7
                                           ;	.line	306; "MC32P7351.c"	PWM0EC = 1;
                                           	BSET	_T0CRbits,6
                                           _00239_DS_
                                           ;	.line	309; "MC32P7351.c"	if(MOTO_MODE==1)			//0.45V
                                           	MOVAR	_MOTO_MODE
                                           	XORAI	0x01
                                           	JBSET	PFLAG,2
                                           	GOTO	_00252_DS_
                                           ;	.line	311; "MC32P7351.c"	BUFF_OVER_ALL2=922;
                                           	MOVAI	0x9a
                                           	MOVRA	_BUFF_OVER_ALL2
                                           	MOVAI	0x03
                                           	MOVRA	(_BUFF_OVER_ALL2 + 1)
                                           ;	.line	312; "MC32P7351.c"	BUFF_M_CNT=2;
                                           	MOVAI	0x02
                                           	MOVRA	_BUFF_M_CNT
                                           	GOTO	_00253_DS_
                                           _00252_DS_
                                           ;	.line	314; "MC32P7351.c"	else if(MOTO_MODE==2)		//0.54V
                                           	MOVAR	_MOTO_MODE
                                           	XORAI	0x02
                                           	JBSET	PFLAG,2
                                           	GOTO	_00249_DS_
                                           ;	.line	316; "MC32P7351.c"	BUFF_OVER_ALL2=1106;
                                           	MOVAI	0x52
                                           	MOVRA	_BUFF_OVER_ALL2
                                           	MOVAI	0x04
                                           	MOVRA	(_BUFF_OVER_ALL2 + 1)
                                           ;	.line	317; "MC32P7351.c"	BUFF_M_CNT=3;
                                           	MOVAI	0x03
                                           	MOVRA	_BUFF_M_CNT
                                           	GOTO	_00253_DS_
                                           _00249_DS_
                                           ;	.line	319; "MC32P7351.c"	else if(MOTO_MODE==3)		//0.63V
                                           	MOVAR	_MOTO_MODE
                                           	XORAI	0x03
                                           	JBSET	PFLAG,2
                                           	GOTO	_00246_DS_
                                           ;	.line	321; "MC32P7351.c"	BUFF_OVER_ALL2=1290;
                                           	MOVAI	0x0a
                                           	MOVRA	_BUFF_OVER_ALL2
                                           	MOVAI	0x05
                                           	MOVRA	(_BUFF_OVER_ALL2 + 1)
                                           ;	.line	322; "MC32P7351.c"	BUFF_M_CNT=3;
                                           	MOVAI	0x03
                                           	MOVRA	_BUFF_M_CNT
                                           	GOTO	_00253_DS_
                                           _00246_DS_
                                           ;	.line	324; "MC32P7351.c"	else if(MOTO_MODE==4)		//0.72V
                                           	MOVAR	_MOTO_MODE
                                           	XORAI	0x04
                                           	JBSET	PFLAG,2
                                           	GOTO	_00243_DS_
                                           ;	.line	326; "MC32P7351.c"	BUFF_OVER_ALL2=1475;
                                           	MOVAI	0xc3
                                           	MOVRA	_BUFF_OVER_ALL2
                                           	MOVAI	0x05
                                           	MOVRA	(_BUFF_OVER_ALL2 + 1)
                                           ;	.line	327; "MC32P7351.c"	BUFF_M_CNT=4;
                                           	MOVAI	0x04
                                           	MOVRA	_BUFF_M_CNT
                                           	GOTO	_00253_DS_
                                           _00243_DS_
                                           ;	.line	329; "MC32P7351.c"	else if(MOTO_MODE==5)		//0.81V
                                           	MOVAR	_MOTO_MODE
                                           	XORAI	0x05
                                           	JBSET	PFLAG,2
                                           	GOTO	_00253_DS_
                                           ;	.line	331; "MC32P7351.c"	BUFF_OVER_ALL2=1679;
                                           	MOVAI	0x8f
                                           	MOVRA	_BUFF_OVER_ALL2
                                           	MOVAI	0x06
                                           	MOVRA	(_BUFF_OVER_ALL2 + 1)
                                           ;	.line	332; "MC32P7351.c"	BUFF_M_CNT=5;
                                           	MOVAI	0x05
                                           	MOVRA	_BUFF_M_CNT
                                           _00253_DS_
                                           ;	.line	334; "MC32P7351.c"	T0DATA = BUFF_MOTO;
                                           	MOVAR	_BUFF_MOTO
                                           	MOVRA	_T0DATA
                                           	GOTO	_00260_DS_
                                           _00258_DS_
                                           ;	.line	339; "MC32P7351.c"	TIMER0_INT_Init();
                                           	CALL	_TIMER0_INT_Init
                                           ;	.line	340; "MC32P7351.c"	MOTO=0;
                                           	BCLR	_IOP1bits,7
                                           ;	.line	341; "MC32P7351.c"	MOTO_MODE=0;
                                           	CLRR	_MOTO_MODE
                                           ;	.line	342; "MC32P7351.c"	MOTO_DIS_CNT=0;
                                           	CLRR	_MOTO_DIS_CNT
                                           	CLRR	(_MOTO_DIS_CNT + 1)
                                           _00260_DS_
                                           ;	.line	344; "MC32P7351.c"	}
                                           	RETURN	
                                           ; exit point of _SCAN_FUNTION_CTR
                                           
                                           ;***
                                           ;  pBlock Stats: dbName = C
                                           ;***
                                           ;entry:  _SCAN_CHARGE_CTR	;Function start
                                           ; 2 exit points
                                           ;has an exit
                                           ;1 compiler assigned register :
                                           ;   r0x104E
                                           ;; Starting pCode block
                                           _SCAN_CHARGE_CTR	;Function start
                                           ; 2 exit points
                                           ;	.line	229; "MC32P7351.c"	if(IN_5V&&UP_POWER_F&&B_UP_POWER_CK)
                                           	JBSET	_IOP1bits,1
                                           	GOTO	_00229_DS_
                                           	JBSET	_KEY_FLAG,5
                                           	GOTO	_00229_DS_
                                           	JBSET	_flag1,3
                                           	GOTO	_00229_DS_
                                           ;	.line	231; "MC32P7351.c"	if(!CHARGE_EN)
                                           	JBCLR	_flag1,2
                                           	GOTO	_00222_DS_
                                           ;	.line	233; "MC32P7351.c"	CHARGE_CNT1++;
                                           	INCR	_CHARGE_CNT1
                                           ;;swapping arguments (AOP_TYPEs 1/3)
                                           ;;unsigned compare: left >= lit(0xC8=200), size=1
                                           ;	.line	234; "MC32P7351.c"	if(CHARGE_CNT1>199)
                                           	MOVAI	0xc8
                                           	RSUBAR	_CHARGE_CNT1
                                           	JBSET	PFLAG,0
                                           	GOTO	_00233_DS_
                                           ;;genSkipc:3291: created from rifx:013B5EFC
                                           ;	.line	236; "MC32P7351.c"	CHARGE_CNT1=0;
                                           	CLRR	_CHARGE_CNT1
                                           ;	.line	237; "MC32P7351.c"	CHARGE_EN=1;
                                           	BSET	_flag1,2
                                           ;	.line	238; "MC32P7351.c"	CHARGE_FULL=0;
                                           	BCLR	_flag1,6
                                           	GOTO	_00233_DS_
                                           _00222_DS_
                                           ;	.line	243; "MC32P7351.c"	if(IN_CHARGE==1)
                                           	CLRR	r0x104E
                                           	JBCLR	_IOP1bits,2
                                           	INCR	r0x104E
                                           	MOVAR	r0x104E
                                           	XORAI	0x01
                                           	JBSET	PFLAG,2
                                           	GOTO	_00219_DS_
                                           ;	.line	245; "MC32P7351.c"	CHARGE_CNT2=0;
                                           	CLRR	_CHARGE_CNT2
                                           ;	.line	246; "MC32P7351.c"	CHARGE_CNT1++;
                                           	INCR	_CHARGE_CNT1
                                           ;;swapping arguments (AOP_TYPEs 1/3)
                                           ;;unsigned compare: left >= lit(0xC8=200), size=1
                                           ;	.line	247; "MC32P7351.c"	if(CHARGE_CNT1>199)
                                           	MOVAI	0xc8
                                           	RSUBAR	_CHARGE_CNT1
                                           	JBSET	PFLAG,0
                                           	GOTO	_00233_DS_
                                           ;;genSkipc:3291: created from rifx:013B5EFC
                                           ;	.line	249; "MC32P7351.c"	CHARGE_CNT1=0;
                                           	CLRR	_CHARGE_CNT1
                                           ;	.line	250; "MC32P7351.c"	CHARGE_EN=1;
                                           	BSET	_flag1,2
                                           ;	.line	251; "MC32P7351.c"	CHARGE_FULL=1;
                                           	BSET	_flag1,6
                                           ;	.line	252; "MC32P7351.c"	B_LOW_POWER_F=0;
                                           	BCLR	_flag2,0
                                           ;	.line	253; "MC32P7351.c"	B_LOW_P_DIS_F=0;
                                           	BCLR	_flag2,1
                                           	GOTO	_00233_DS_
                                           _00219_DS_
                                           ;	.line	258; "MC32P7351.c"	CHARGE_CNT1=0;
                                           	CLRR	_CHARGE_CNT1
                                           ;	.line	259; "MC32P7351.c"	CHARGE_CNT2++;
                                           	INCR	_CHARGE_CNT2
                                           ;;swapping arguments (AOP_TYPEs 1/3)
                                           ;;unsigned compare: left >= lit(0xC8=200), size=1
                                           ;	.line	260; "MC32P7351.c"	if(CHARGE_CNT2>199)
                                           	MOVAI	0xc8
                                           	RSUBAR	_CHARGE_CNT2
                                           	JBSET	PFLAG,0
                                           	GOTO	_00233_DS_
                                           ;;genSkipc:3291: created from rifx:013B5EFC
                                           ;	.line	262; "MC32P7351.c"	CHARGE_CNT2=0;
                                           	CLRR	_CHARGE_CNT2
                                           ;	.line	263; "MC32P7351.c"	CHARGE_EN=1;
                                           	BSET	_flag1,2
                                           ;	.line	264; "MC32P7351.c"	CHARGE_FULL=0;
                                           	BCLR	_flag1,6
                                           ;	.line	265; "MC32P7351.c"	B_LOW_POWER_F=0;
                                           	BCLR	_flag2,0
                                           ;	.line	266; "MC32P7351.c"	B_LOW_P_DIS_F=0;
                                           	BCLR	_flag2,1
                                           	GOTO	_00233_DS_
                                           _00229_DS_
                                           ;	.line	273; "MC32P7351.c"	CHARGE_CNT1=0;
                                           	CLRR	_CHARGE_CNT1
                                           ;	.line	274; "MC32P7351.c"	CHARGE_CNT2=0;
                                           	CLRR	_CHARGE_CNT2
                                           ;	.line	275; "MC32P7351.c"	CHARGE_CNT3++;
                                           	INCR	_CHARGE_CNT3
                                           ;;swapping arguments (AOP_TYPEs 1/3)
                                           ;;unsigned compare: left >= lit(0xC8=200), size=1
                                           ;	.line	276; "MC32P7351.c"	if(CHARGE_CNT3>199)
                                           	MOVAI	0xc8
                                           	RSUBAR	_CHARGE_CNT3
                                           	JBSET	PFLAG,0
                                           	GOTO	_00233_DS_
                                           ;;genSkipc:3291: created from rifx:013B5EFC
                                           ;	.line	278; "MC32P7351.c"	CHARGE_CNT3=0;
                                           	CLRR	_CHARGE_CNT3
                                           ;	.line	279; "MC32P7351.c"	if(CHARGE_EN)
                                           	JBSET	_flag1,2
                                           	GOTO	_00233_DS_
                                           ;	.line	281; "MC32P7351.c"	CHARGE_EN=0;
                                           	BCLR	_flag1,2
                                           ;	.line	282; "MC32P7351.c"	CHARGE_FULL=0;
                                           	BCLR	_flag1,6
                                           ;	.line	283; "MC32P7351.c"	B_LOW_POWER_F=0;
                                           	BCLR	_flag2,0
                                           _00233_DS_
                                           ;	.line	287; "MC32P7351.c"	}
                                           	RETURN	
                                           ; exit point of _SCAN_CHARGE_CTR
                                           
                                           ;***
                                           ;  pBlock Stats: dbName = C
                                           ;***
                                           ;entry:  _SCAN_KEY_CTR	;Function start
                                           ; 2 exit points
                                           ;has an exit
                                           ;; Starting pCode block
                                           _SCAN_KEY_CTR	;Function start
                                           ; 2 exit points
                                           ;	.line	157; "MC32P7351.c"	if((!KEY)&&UP_POWER_F&&B_UP_POWER_CK&&(!B_LOW_POWER_F))
                                           	JBCLR	_IOP1bits,3
                                           	GOTO	_00155_DS_
                                           	JBSET	_KEY_FLAG,5
                                           	GOTO	_00155_DS_
                                           	JBSET	_flag1,3
                                           	GOTO	_00155_DS_
                                           	JBCLR	_flag2,0
                                           	GOTO	_00155_DS_
                                           ;	.line	159; "MC32P7351.c"	KEY_CNT2=0;
                                           	CLRR	_KEY_CNT2
                                           ;	.line	160; "MC32P7351.c"	if(!KEY_PRESS_L)
                                           	JBCLR	_flag1,1
                                           	GOTO	_00160_DS_
                                           ;	.line	162; "MC32P7351.c"	KEY_CNT1++;
                                           	INCR	_KEY_CNT1
                                           	JBCLR	PFLAG,2
                                           	INCR	(_KEY_CNT1 + 1)
                                           ;;swapping arguments (AOP_TYPEs 1/3)
                                           ;;unsigned compare: left >= lit(0x14=20), size=2
                                           ;	.line	163; "MC32P7351.c"	if(KEY_CNT1>19)
                                           	MOVAI	0x00
                                           	RSUBAR	(_KEY_CNT1 + 1)
                                           	JBSET	PFLAG,2
                                           	GOTO	_00206_DS_
                                           	MOVAI	0x14
                                           	RSUBAR	_KEY_CNT1
                                           _00206_DS_
                                           	JBSET	PFLAG,0
                                           	GOTO	_00140_DS_
                                           ;;genSkipc:3291: created from rifx:013B5EFC
                                           ;	.line	165; "MC32P7351.c"	KEY_PRESS=1;
                                           	BSET	_flag1,0
                                           ;;swapping arguments (AOP_TYPEs 1/3)
                                           ;;unsigned compare: left >= lit(0x3E8=1000), size=2
                                           _00140_DS_
                                           ;	.line	168; "MC32P7351.c"	if(KEY_CNT1>999)
                                           	MOVAI	0x03
                                           	RSUBAR	(_KEY_CNT1 + 1)
                                           	JBSET	PFLAG,2
                                           	GOTO	_00207_DS_
                                           	MOVAI	0xe8
                                           	RSUBAR	_KEY_CNT1
                                           _00207_DS_
                                           	JBSET	PFLAG,0
                                           	GOTO	_00160_DS_
                                           ;;genSkipc:3291: created from rifx:013B5EFC
                                           ;	.line	170; "MC32P7351.c"	KEY_CNT1=0;
                                           	CLRR	_KEY_CNT1
                                           	CLRR	(_KEY_CNT1 + 1)
                                           ;	.line	171; "MC32P7351.c"	KEY_PRESS_L=1;
                                           	BSET	_flag1,1
                                           ;	.line	172; "MC32P7351.c"	WORK_ON=0;
                                           	BCLR	_KEY_FLAG,2
                                           ;	.line	174; "MC32P7351.c"	B_MOTO_LEVE_ZS=0;
                                           	BCLR	_flag1,5
                                           	GOTO	_00160_DS_
                                           _00155_DS_
                                           ;	.line	185; "MC32P7351.c"	KEY_CNT1=0;
                                           	CLRR	_KEY_CNT1
                                           	CLRR	(_KEY_CNT1 + 1)
                                           ;	.line	186; "MC32P7351.c"	KEY_CNT2++;
                                           	INCR	_KEY_CNT2
                                           ;;swapping arguments (AOP_TYPEs 1/3)
                                           ;;unsigned compare: left >= lit(0x14=20), size=1
                                           ;	.line	187; "MC32P7351.c"	if(KEY_CNT2>19)
                                           	MOVAI	0x14
                                           	RSUBAR	_KEY_CNT2
                                           	JBSET	PFLAG,0
                                           	GOTO	_00160_DS_
                                           ;;genSkipc:3291: created from rifx:013B5EFC
                                           ;	.line	189; "MC32P7351.c"	KEY_CNT2=0;
                                           	CLRR	_KEY_CNT2
                                           ;	.line	190; "MC32P7351.c"	if(KEY_PRESS_L)
                                           	JBSET	_flag1,1
                                           	GOTO	_00150_DS_
                                           ;	.line	192; "MC32P7351.c"	KEY_PRESS_L=0;
                                           	BCLR	_flag1,1
                                           ;	.line	193; "MC32P7351.c"	KEY_PRESS=0;
                                           	BCLR	_flag1,0
                                           	GOTO	_00160_DS_
                                           _00150_DS_
                                           ;	.line	195; "MC32P7351.c"	else if(KEY_PRESS)
                                           	JBSET	_flag1,0
                                           	GOTO	_00160_DS_
                                           ;	.line	197; "MC32P7351.c"	KEY_PRESS=0;
                                           	BCLR	_flag1,0
                                           ;	.line	198; "MC32P7351.c"	WORK_ON=1;
                                           	BSET	_KEY_FLAG,2
                                           ;	.line	203; "MC32P7351.c"	B_MOTO_LEVE_ZS=1;
                                           	BSET	_flag1,5
                                           ;	.line	204; "MC32P7351.c"	MOTO_DIS_CNT=0;
                                           	CLRR	_MOTO_DIS_CNT
                                           	CLRR	(_MOTO_DIS_CNT + 1)
                                           ;	.line	205; "MC32P7351.c"	PWM_INONE=0;
                                           	BCLR	_flag2,6
                                           ;	.line	207; "MC32P7351.c"	MOTO_CNT2=0;
                                           	CLRR	_MOTO_CNT2
                                           ;	.line	209; "MC32P7351.c"	MOTO_MODE++;
                                           	INCR	_MOTO_MODE
                                           ;;swapping arguments (AOP_TYPEs 1/3)
                                           ;;unsigned compare: left >= lit(0x6=6), size=1
                                           ;	.line	210; "MC32P7351.c"	if(MOTO_MODE>5)
                                           	MOVAI	0x06
                                           	RSUBAR	_MOTO_MODE
                                           	JBSET	PFLAG,0
                                           	GOTO	_00160_DS_
                                           ;;genSkipc:3291: created from rifx:013B5EFC
                                           ;	.line	212; "MC32P7351.c"	MOTO_MODE=0;
                                           	CLRR	_MOTO_MODE
                                           ;	.line	213; "MC32P7351.c"	WORK_ON=0;
                                           	BCLR	_KEY_FLAG,2
                                           ;	.line	214; "MC32P7351.c"	B_MOTO_LEVE_ZS=0;
                                           	BCLR	_flag1,5
                                           _00160_DS_
                                           ;	.line	225; "MC32P7351.c"	}
                                           	RETURN	
                                           ; exit point of _SCAN_KEY_CTR
                                           
                                           ;***
                                           ;  pBlock Stats: dbName = C
                                           ;***
                                           ;entry:  _Sys_Init	;Function start
                                           ; 2 exit points
                                           ;has an exit
                                           ;functions called:
                                           ;   _CLR_RAM
                                           ;   _IO_Init
                                           ;   _ADC_Power_On_Stability
                                           ;   _ADC_Zero_ADJ
                                           ;   _TIMER0_INT_Init
                                           ;   _TIMER1_PWM_Init
                                           ;   _CLR_RAM
                                           ;   _IO_Init
                                           ;   _ADC_Power_On_Stability
                                           ;   _ADC_Zero_ADJ
                                           ;   _TIMER0_INT_Init
                                           ;   _TIMER1_PWM_Init
                                           ;1 compiler assigned register :
                                           ;   r0x104F
                                           ;; Starting pCode block
                                           _Sys_Init	;Function start
                                           ; 2 exit points
                                           ;	.line	108; "MC32P7351.c"	GIE = 0;
                                           	BCLR	_MCRbits,7
                                           ;	.line	109; "MC32P7351.c"	CLR_RAM();
                                           	CALL	_CLR_RAM
                                           ;	.line	110; "MC32P7351.c"	IO_Init();
                                           	CALL	_IO_Init
                                           ;	.line	111; "MC32P7351.c"	ADC_Power_On_Stability();
                                           	CALL	_ADC_Power_On_Stability
                                           _00124_DS_
                                           ;	.line	112; "MC32P7351.c"	while (ADC_Zero_ADJ());                      //demo,
                                           	CALL	_ADC_Zero_ADJ
                                           	MOVRA	r0x104F
                                           	MOVAI	0x00
                                           	ORAR	r0x104F
                                           	JBSET	PFLAG,2
                                           	GOTO	_00124_DS_
                                           ;	.line	113; "MC32P7351.c"	TIMER0_INT_Init();
                                           	CALL	_TIMER0_INT_Init
                                           ;	.line	114; "MC32P7351.c"	TIMER1_PWM_Init();
                                           	CALL	_TIMER1_PWM_Init
                                           ;	.line	117; "MC32P7351.c"	ADCR0 = 0B10101011;                      //ADC12H8L4VDD/4
                                           	MOVAI	0xab
                                           	MOVRA	_ADCR0
                                           ;	.line	118; "MC32P7351.c"	ADCR1 = 0x80;                      //32VDD
                                           	MOVAI	0x80
                                           	MOVRA	_ADCR1
                                           ;	.line	119; "MC32P7351.c"	ADCR2 = 0xff;                      //15ADCLK
                                           	MOVAI	0xff
                                           	MOVRA	_ADCR2
                                           ;	.line	120; "MC32P7351.c"	GIE = 1;
                                           	BSET	_MCRbits,7
                                           ;	.line	121; "MC32P7351.c"	}
                                           	RETURN	
                                           ; exit point of _Sys_Init
                                           
                                           ;***
                                           ;  pBlock Stats: dbName = C
                                           ;***
                                           ;entry:  _TIMER1_PWM_Init	;Function start
                                           ; 2 exit points
                                           ;has an exit
                                           ;; Starting pCode block
                                           _TIMER1_PWM_Init	;Function start
                                           ; 2 exit points
                                           ;	.line	82; "MC32P7351.c"	T1CR   = 0b00000000;     	//PWM,CPU,2
                                           	CLRR	_T1CR
                                           ;	.line	83; "MC32P7351.c"	T1CNT  = 0;
                                           	CLRR	_T1CNT
                                           ;	.line	84; "MC32P7351.c"	T1LOAD = 178;          		//62.5us
                                           	MOVAI	0xb2
                                           	MOVRA	_T1LOAD
                                           ;	.line	86; "MC32P7351.c"	T1EN   = 1;
                                           	BSET	_T1CRbits,7
                                           ;	.line	87; "MC32P7351.c"	T1IE   = 1;
                                           	BSET	_INTEbits,1
                                           ;	.line	88; "MC32P7351.c"	}
                                           	RETURN	
                                           ; exit point of _TIMER1_PWM_Init
                                           
                                           ;***
                                           ;  pBlock Stats: dbName = C
                                           ;***
                                           ;entry:  _TIMER0_INT_Init	;Function start
                                           ; 2 exit points
                                           ;has an exit
                                           ;; Starting pCode block
                                           _TIMER0_INT_Init	;Function start
                                           ; 2 exit points
                                           ;	.line	68; "MC32P7351.c"	T0CR   = 0B00001000;			// PWM0		FTMR
                                           	MOVAI	0x08
                                           	MOVRA	_T0CR
                                           ;	.line	69; "MC32P7351.c"	T0CNT  = 199;
                                           	MOVAI	0xc7
                                           	MOVRA	_T0CNT
                                           ;	.line	70; "MC32P7351.c"	T0LOAD = 199;				
                                           	MOVAI	0xc7
                                           	MOVRA	_T0LOAD
                                           ;	.line	72; "MC32P7351.c"	BUFF_MOTO= 0;
                                           	CLRR	_BUFF_MOTO
                                           ;	.line	73; "MC32P7351.c"	SY_IO=0;
                                           	BCLR	_IOP1bits,6
                                           ;	.line	74; "MC32P7351.c"	T0EN   = 0;
                                           	BCLR	_T0CRbits,7
                                           ;	.line	75; "MC32P7351.c"	PWM0EC = 0;
                                           	BCLR	_T0CRbits,6
                                           ;	.line	76; "MC32P7351.c"	T0DATA = 0;
                                           	CLRR	_T0DATA
                                           ;	.line	77; "MC32P7351.c"	}
                                           	RETURN	
                                           ; exit point of _TIMER0_INT_Init
                                           
                                           ;***
                                           ;  pBlock Stats: dbName = C
                                           ;***
                                           ;entry:  _IO_Init	;Function start
                                           ; 2 exit points
                                           ;has an exit
                                           ;; Starting pCode block
                                           _IO_Init	;Function start
                                           ; 2 exit points
                                           ;	.line	42; "MC32P7351.c"	IOP0   = 0B00000000;                 //io
                                           	CLRR	_IOP0
                                           ;	.line	43; "MC32P7351.c"	OEP0   = 0B11100000;                 //io 1:out  0:in
                                           	MOVAI	0xe0
                                           	MOVRA	_OEP0
                                           ;	.line	44; "MC32P7351.c"	PUP0   = 0x00;                       //io   1:enable  0:disable
                                           	CLRR	_PUP0
                                           ;	.line	45; "MC32P7351.c"	PDP0   = 0x00;                       //io   1:enable  0:disable
                                           	CLRR	_PDP0
                                           ;	.line	46; "MC32P7351.c"	ADIOS0 = 0B00010000;                 //io  1:  0:io
                                           	MOVAI	0x10
                                           	MOVRA	_ADIOS0
                                           ;	.line	48; "MC32P7351.c"	IOP1   = 0B00000000;                 //io
                                           	CLRR	_IOP1
                                           ;	.line	49; "MC32P7351.c"	OEP1   = 0B11010001;                 //io 1:out  0:in
                                           	MOVAI	0xd1
                                           	MOVRA	_OEP1
                                           ;	.line	50; "MC32P7351.c"	PUP1   = 0B00001100;                 //io   1:enable  0:disable
                                           	MOVAI	0x0c
                                           	MOVRA	_PUP1
                                           ;	.line	51; "MC32P7351.c"	PDP1   = 0B00000000;                 //io   1:enable  0:disable
                                           	CLRR	_PDP1
                                           ;	.line	52; "MC32P7351.c"	ADIOS1 = 0B00000000;                 //io  1:  0:io
                                           	CLRR	_ADIOS1
                                           ;	.line	54; "MC32P7351.c"	PMOD   = 0B00000011;                 //bit7-bit5 P17P13P01 io 1:  0:io 
                                           	MOVAI	0x03
                                           	MOVRA	_PMOD
                                           ;	.line	56; "MC32P7351.c"	DRVCR  = 0x80;                       //
                                           	MOVAI	0x80
                                           	MOVRA	_DRVCR
                                           ;	.line	57; "MC32P7351.c"	}
                                           	RETURN	
                                           ; exit point of _IO_Init
                                           
                                           ;***
                                           ;  pBlock Stats: dbName = C
                                           ;***
                                           ;entry:  _CLR_RAM	;Function start
                                           ; 2 exit points
                                           ;has an exit
                                           ;; Starting pCode block
                                           _CLR_RAM	;Function start
                                           ; 2 exit points
                                           ;	.line	27; "MC32P7351.c"	for (FSR0 = 0; FSR0 < 0xff; FSR0++)
                                           	CLRR	_FSR0
                                           ;;unsigned compare: left < lit(0xFF=255), size=1
                                           _00107_DS_
                                           	MOVAI	0xff
                                           	RSUBAR	_FSR0
                                           	JBCLR	PFLAG,0
                                           	GOTO	_00105_DS_
                                           ;;genSkipc:3291: created from rifx:013B5EFC
                                           ;	.line	29; "MC32P7351.c"	INDF0 = 0x00;
                                           	CLRR	_INDF0
                                           ;	.line	27; "MC32P7351.c"	for (FSR0 = 0; FSR0 < 0xff; FSR0++)
                                           	INCR	_FSR0
                                           	GOTO	_00107_DS_
                                           _00105_DS_
                                           ;	.line	31; "MC32P7351.c"	FSR0 = 0xFF;
                                           	MOVAI	0xff
                                           	MOVRA	_FSR0
                                           ;	.line	32; "MC32P7351.c"	INDF0 = 0x00;
                                           	CLRR	_INDF0
                                           ;	.line	33; "MC32P7351.c"	}
                                           	RETURN	
                                           ; exit point of _CLR_RAM
                                           
                                           
                                           ;	code size estimation:
                                           ;	 1546+    0 =  1546 instructions ( 3092 byte)
                                           
                                           	end


MEMORY USAGE MAP ('X' = Used,  '-' = Unused)

0000 : XX-------------- XXXXXXXXXXXXXXXX XXXXXXXXXXXXXXXX XXXXXXXXXXXXXXXX
0040 : XXXXXXXXXXXXXXXX XXXXXXXXXXXXXXXX XXXXXXXXXXXXXXXX XXXXXXXXXXXXXXXX
0080 : XXXXXXXXXXXXXXXX XXXXXXXXXXXXXXXX XXXXXXXXXXXXXXXX XXXXXXXXXXXXXXXX
00C0 : XXXXXXXXXXXXXXXX XXXXXXXXXXXXXXXX XXXXXXXXXXXXXXXX XXXXXXXXXXXXXXXX
0100 : XXXXXXXXXXXXXXXX XXXXXXXXXXXXXXXX XXXXXXXXXXXXXXXX XXXXXXXXXXXXXXXX
0140 : XXXXXXXXXXXXXXXX XXXXXXXXXXXXXXXX XXXXXXXXXXXXXXXX XXXXXXXXXXXXXXXX
0180 : XXXXXXXXXXXXXXXX XXXXXXXXXXXXXXXX XXXXXXXXXXXXXXXX XXXXXXXXXXXXXXXX
01C0 : XXXXXXXXXXXXXXXX XXXXXXXXXXXXXXXX XXXXXXXXXXXXXXXX XXXXXXXXXXXXXXXX
0200 : XXXXXXXXXXXXXXXX XXXXXXXXXXXXXXXX XXXXXXXXXXXXXXXX XXXXXXXXXXXXXXXX
0240 : XXXXXXXXXXXXXXXX XXXXXXXXXXXXXXXX XXXXXXXXXXXXXXXX XXXXXXXXXXXXXXXX
0280 : XXXXXXXXXXXXXXXX XXXXXXXXXXXXXXXX XXXXXXXXXXXXXXXX XXXXXXXXXXXXXXXX
02C0 : XXXXXXXXXXXXXXXX XXXXXXXXXXXXXXXX XXXXXXXXXXXXXXXX XXXXXXXXXXXXXXXX
0300 : XXXXXXXXXXXXXXXX XXXXXXXXXXXXXXXX XXXXXXXXXXXXXXXX XXXXXXXXXXXXXXXX
0340 : XXXXXXXXXXXXXXXX XXXXXXXXXXXXXXXX XXXXXXXXXXXXXXXX XXXXXXXXXXXXXXXX
0380 : XXXXXXXXXXXXXXXX XXXXXXXXXXXXXXXX XXXXXXXXXXXXXXXX XXXXXXXXXXXXXXXX
03C0 : XXXXXXXXXXXXXXXX XXXXXXXXXXXXXXXX XXXXXXXXXXXXXXXX XXXXXXXXXXXXXXXX
0400 : XXXXXXXXXXXXXXXX XXXXXXXXXXXXXXXX XXXXXXXXXXXXXXXX XXXXXXXXXXXXXXXX
0440 : XXXXXXXXXXXXXXXX XXXXXXXXXXXXXXXX XXXXXXXXXXXXXXXX XXXXXXXXXXXXXXXX
0480 : XXXXXXXXXXXXXXXX XXXXXXXXXXXXXXXX XXXXXXXXXXXXXXXX XXXXXXXXXXXXXXXX
04C0 : XXXXXXXXXXXXXXXX XXXXXXXXXXXXXXXX XXXXXXXXXXXXXXXX XXXXXXXXXXXXXXXX
0500 : XXXXXXXXXXXXXXXX XXXXXXXXXXXXXXXX XXXXXXXXXXXXXXXX XXXXXXXXXXXXXXXX
0540 : XXXXXXXXXXXXXXXX XXXXXXXXXXXXXXXX XXXXXXXXXXXXXXXX XXXXXXXXXXXXXXXX
0580 : XXXXXXXXXXXXXXXX XXXXXXXXXXXXXXXX XXXXXXXXXXXXXXXX XXXXXXXXXXXXXXXX
05C0 : XXXXXXXXXXXXXXXX XXXXXXXXXXXXXXXX XXXXXXXXXXXXXXXX XXXXXXXXXXXXXXXX
0600 : XXXXXXXXXXXXXXXX XXXXXXXXXXXXXXXX XXXXXXXXXXXXXXXX XXXXXXXXXXXXXXXX
0640 : XXXXXXXXXXXXXXXX XXXXXXXXXXXXXXXX XXXXXXXXXXXXXXXX XXXXXXXXXXXXXXXX
0680 : XXXXXXXXXXXXXXXX XXXXXXXXXXXXXXXX XXXXXXXXXXXXXXXX XXXXXXXXXXXXXXXX
06C0 : XXXXXXXXXXXXXXXX XXXXXXXXXXXXXXXX XXXXXXXXXXXXXXXX XXXXXXXXXXXXXXXX
0700 : XXXXXXXXXXXXXXXX XXXXXXXXXXXXXXXX XXXXXXXXXXXXXXXX XXXXXXXXXXXXXXXX
0740 : XXXXXXXXXXXXXXXX XXXXXXXXXXXXXXXX XXXXXXXXXXXXXXXX XXXXXXXXXXXXXXXX
0780 : XXXXXXXXXXXXXXXX XXXXXXXXXXXXXXXX XXXXXXXXXXXXXXXX XXXXXXXXXXXXXXXX
07C0 : XXXXXXXXXXXXXXXX XXXXXXXXXXXXXXXX XXXXXXXXXXXXXXXX XXXXXXXXXXXXXXXX
0800 : XXXXXXXXXXXXXXXX XXXXXXXXXXXXXXXX XXXXXXXXXXXXXXXX XXXXXXXXXXXXXXXX
0840 : XXXXXXXXXXXXXXXX XXXXXXXXXXXXXXXX XXXXXXXXXXXXXXXX XXXXXXXXXXXXXXXX
0880 : XXXXXXXXXXXXXXXX XXXXXXXXXXXXXXXX XXXXXXXXXXXXXXXX XXXXXXXXXXXXXXXX
08C0 : XXXXXXXXXXXXXXXX XXXXXXXXXXXXXXXX XXXXXXXXXXXXXXXX XXXXXXXXXXXXXXXX
0900 : XXXXXXXXXXXXXXXX XXXXXXXXXXXXXXXX XXXXXXXXXXXXXXXX XXXXXXXXXXXXXXXX
0940 : XXXXXXXXXXXXXXXX XXXXXXXXXXXXXXXX XXXXXXXXXXXXXXXX XXXXXXXXXXXXXXXX
0980 : XXXXXXXXXXXXXXXX XXXXXXXXXXXXXXXX XXXXXXXXXXXXXXXX XXXXXXXXXXXXXXXX
09C0 : XXXXXXXXXXXXXXXX XXXXXXXXXXXXXXXX XXXXXXXXXXXXXXXX XXXXXXXXXXXXXXXX
0A00 : XXXXXXXXXXXXXXXX XXXXXXXXXXXXXXXX XXXXXXXXXXXXXXXX XXXXXXXXXXXXXXXX
0A40 : XXXXXXXXXXXXXXXX XXXXXXXXXXXXXXXX XXXXXXXXXXXXXXXX XXXXXXXXXXXXXXXX
0A80 : XXXXXXXXXXXXXXXX XXXXXXXXXXXXXXXX XXXXXXXXXXXXXXXX XXXXXXXXXXXXXXXX
0AC0 : XXXXXXXXXXXXXXXX XXXXXXXXXXXXXXXX XXXXXXXXXXXXXXXX XXXXXXXXXXXXXXXX
0B00 : XXXXXXXXXXXXXXXX XXXXXXXXXXXXXXXX XXXXXXXXXXXXXXXX XXXXXXXXXXXXXXXX
0B40 : XXXXXXXXXXXXXXXX XXXXXXXXXXXXXXXX XXXXXXXXXXXXXXXX XXXXXXXXXXXXXXXX
0B80 : XXXXXXXXXXXXXXXX XXXXXXXXXXXXXXXX XXXXXXXXXXXXXXXX XXXXXXXXXXXXXXXX
0BC0 : XXXXXXXXXXXXXXXX XXXXXXXXXXXXXXXX XXXXXXXXXXXXXXXX XXXXXXXXXXXXXXXX
0C00 : XXXXXXXXXXXXXXXX XXXXXXXXXXXXXXXX XXXXXXXXXXXXXXXX XXXXXXXXXXXXXXXX
0C40 : XXXXXXXXXXXXXXXX XXXXXXXXXXXXXXXX XXXXXXXXXXXXXXXX XXXXXXXXXXXXXXXX
0C80 : XXXXXXXXXXXXXXXX XXXXXXXXXXXXXXXX XXXXXXXXXXXXXXXX XXXXXXXXXXXXXXXX
0CC0 : XXXXXXXXXXXXXXXX XXXXXXXXXXXXXXXX XXXXXXXXXXXXXXXX XXXXXXXXXXXXXXXX
0D00 : XXXXXXXXXXXXXXXX XXXXXXXXXXXXXXXX XXXXXXXXXXXXXXXX XXXXXXXXXXXXXXXX
0D40 : XXXXXXXXXXXXXXXX XXXXXXXXXXXXXXXX XXXXXXXXXXXXXXXX XXXXXXXXXXXXXXXX
0D80 : XXXXXXXXXXXXXXXX XXXXXXXXXXXXXXXX XXXXXXXXXXXXXXXX XXXXXXXXXXXXXXXX
0DC0 : XXXXXXXXXXXXXXXX XXXXXXXXXXXXXXXX XXXXXXXXXXXXXXXX XXXXXXXXXXXXXXXX
0E00 : XXXXXXXXXXXXXXXX XXXXXXXXXXXXXXXX XXXXXXXXXXXXXXXX XXXXXXXXXXXXXXXX
0E40 : XXXXXXXXXXXXXXXX XXXXXXXXXXXXXXXX XXXXXXXXXXXXXXXX XXXXXXXXXXXXXXXX
0E80 : XXXXXXXXXXXXXXXX XXXXXXXXXXXXXXXX XXXXXXXXXXXXXXXX XXXXXXXXXXXXXXXX
0EC0 : XXXXXXXXXXXXXXXX XXXXXXXXXXXXXXXX XXXXXXXXXXXXXXXX XXXXXXXXXXXXXXXX
0F00 : XXXXXXXXXXXXXXXX XXXXXXXXXXXXXXXX XXXXXXXXXXXXXXXX XXXXXXXXXXXXXXXX
0F40 : XXXXXXXXXXXXXXXX XXXXXXXXXXXX---- ---------------- ----------------

All other memory blocks unused.

Program Memory Words Used:  1959

